Archive member included to satisfy reference by file (symbol)

C:/ti/TivaWare_C_Series-2.2.0.295/driverlib/gcc/libdriver.a(emac.o)
                              ./lwip/port/tiva-tm4c129.o (EMACConfigSet)
C:/ti/TivaWare_C_Series-2.2.0.295/driverlib/gcc/libdriver.a(gpio.o)
                              ./Drivers/pinout.o (GPIOPadConfigSet)
C:/ti/TivaWare_C_Series-2.2.0.295/driverlib/gcc/libdriver.a(interrupt.o)
                              ./lwip/port/tiva-tm4c129.o (IntMasterEnable)
C:/ti/TivaWare_C_Series-2.2.0.295/driverlib/gcc/libdriver.a(sw_crc.o)
                              C:/ti/TivaWare_C_Series-2.2.0.295/driverlib/gcc/libdriver.a(emac.o) (Crc32)
C:/ti/TivaWare_C_Series-2.2.0.295/driverlib/gcc/libdriver.a(sysctl.o)
                              ./main.o (SysCtlPeripheralReady)
C:/ti/TivaWare_C_Series-2.2.0.295/driverlib/gcc/libdriver.a(cpu.o)
                              C:/ti/TivaWare_C_Series-2.2.0.295/driverlib/gcc/libdriver.a(interrupt.o) (CPUcpsid)
c:/ti/ccs1011/ccs/tools/compiler/gcc-arm-none-eabi-7-2017-q4-major-win32/bin/../lib/gcc/arm-none-eabi/7.2.1/../../../../arm-none-eabi/lib/thumb/v7e-m/fpv4-sp/hard\libg.a(lib_a-atoi.o)
                              ./lwip/src/api/netdb.o (atoi)
c:/ti/ccs1011/ccs/tools/compiler/gcc-arm-none-eabi-7-2017-q4-major-win32/bin/../lib/gcc/arm-none-eabi/7.2.1/../../../../arm-none-eabi/lib/thumb/v7e-m/fpv4-sp/hard\libg.a(lib_a-exit.o)
                              c:/ti/ccs1011/ccs/tools/compiler/gcc-arm-none-eabi-7-2017-q4-major-win32/bin/../lib/gcc/arm-none-eabi/7.2.1/../../../../arm-none-eabi/lib/thumb/v7e-m/fpv4-sp/hard/crt0.o (exit)
c:/ti/ccs1011/ccs/tools/compiler/gcc-arm-none-eabi-7-2017-q4-major-win32/bin/../lib/gcc/arm-none-eabi/7.2.1/../../../../arm-none-eabi/lib/thumb/v7e-m/fpv4-sp/hard\libg.a(lib_a-impure.o)
                              c:/ti/ccs1011/ccs/tools/compiler/gcc-arm-none-eabi-7-2017-q4-major-win32/bin/../lib/gcc/arm-none-eabi/7.2.1/../../../../arm-none-eabi/lib/thumb/v7e-m/fpv4-sp/hard\libg.a(lib_a-exit.o) (_global_impure_ptr)
c:/ti/ccs1011/ccs/tools/compiler/gcc-arm-none-eabi-7-2017-q4-major-win32/bin/../lib/gcc/arm-none-eabi/7.2.1/../../../../arm-none-eabi/lib/thumb/v7e-m/fpv4-sp/hard\libg.a(lib_a-init.o)
                              c:/ti/ccs1011/ccs/tools/compiler/gcc-arm-none-eabi-7-2017-q4-major-win32/bin/../lib/gcc/arm-none-eabi/7.2.1/../../../../arm-none-eabi/lib/thumb/v7e-m/fpv4-sp/hard/crt0.o (__libc_init_array)
c:/ti/ccs1011/ccs/tools/compiler/gcc-arm-none-eabi-7-2017-q4-major-win32/bin/../lib/gcc/arm-none-eabi/7.2.1/../../../../arm-none-eabi/lib/thumb/v7e-m/fpv4-sp/hard\libg.a(lib_a-locale.o)
                              ./lwip/src/core/dns.o (__locale_ctype_ptr)
c:/ti/ccs1011/ccs/tools/compiler/gcc-arm-none-eabi-7-2017-q4-major-win32/bin/../lib/gcc/arm-none-eabi/7.2.1/../../../../arm-none-eabi/lib/thumb/v7e-m/fpv4-sp/hard\libg.a(lib_a-mbtowc_r.o)
                              c:/ti/ccs1011/ccs/tools/compiler/gcc-arm-none-eabi-7-2017-q4-major-win32/bin/../lib/gcc/arm-none-eabi/7.2.1/../../../../arm-none-eabi/lib/thumb/v7e-m/fpv4-sp/hard\libg.a(lib_a-locale.o) (__ascii_mbtowc)
c:/ti/ccs1011/ccs/tools/compiler/gcc-arm-none-eabi-7-2017-q4-major-win32/bin/../lib/gcc/arm-none-eabi/7.2.1/../../../../arm-none-eabi/lib/thumb/v7e-m/fpv4-sp/hard\libg.a(lib_a-memcmp.o)
                              ./lwip/src/netif/ethernet.o (memcmp)
c:/ti/ccs1011/ccs/tools/compiler/gcc-arm-none-eabi-7-2017-q4-major-win32/bin/../lib/gcc/arm-none-eabi/7.2.1/../../../../arm-none-eabi/lib/thumb/v7e-m/fpv4-sp/hard\libg.a(lib_a-memcpy.o)
                              ./FreeRTOS/queue.o (memcpy)
c:/ti/ccs1011/ccs/tools/compiler/gcc-arm-none-eabi-7-2017-q4-major-win32/bin/../lib/gcc/arm-none-eabi/7.2.1/../../../../arm-none-eabi/lib/thumb/v7e-m/fpv4-sp/hard\libg.a(lib_a-memmove.o)
                              ./lwip/src/core/def.o (memmove)
c:/ti/ccs1011/ccs/tools/compiler/gcc-arm-none-eabi-7-2017-q4-major-win32/bin/../lib/gcc/arm-none-eabi/7.2.1/../../../../arm-none-eabi/lib/thumb/v7e-m/fpv4-sp/hard\libg.a(lib_a-memset.o)
                              c:/ti/ccs1011/ccs/tools/compiler/gcc-arm-none-eabi-7-2017-q4-major-win32/bin/../lib/gcc/arm-none-eabi/7.2.1/../../../../arm-none-eabi/lib/thumb/v7e-m/fpv4-sp/hard/crt0.o (memset)
c:/ti/ccs1011/ccs/tools/compiler/gcc-arm-none-eabi-7-2017-q4-major-win32/bin/../lib/gcc/arm-none-eabi/7.2.1/../../../../arm-none-eabi/lib/thumb/v7e-m/fpv4-sp/hard\libg.a(lib_a-printf.o)
                              ./lwip/apps/httpserver_raw/httpd.o (printf)
c:/ti/ccs1011/ccs/tools/compiler/gcc-arm-none-eabi-7-2017-q4-major-win32/bin/../lib/gcc/arm-none-eabi/7.2.1/../../../../arm-none-eabi/lib/thumb/v7e-m/fpv4-sp/hard\libg.a(lib_a-rand.o)
                              ./lwip/src/core/dns.o (rand)
c:/ti/ccs1011/ccs/tools/compiler/gcc-arm-none-eabi-7-2017-q4-major-win32/bin/../lib/gcc/arm-none-eabi/7.2.1/../../../../arm-none-eabi/lib/thumb/v7e-m/fpv4-sp/hard\libg.a(lib_a-reent.o)
                              ./lwip/src/api/if_api.o (errno)
c:/ti/ccs1011/ccs/tools/compiler/gcc-arm-none-eabi-7-2017-q4-major-win32/bin/../lib/gcc/arm-none-eabi/7.2.1/../../../../arm-none-eabi/lib/thumb/v7e-m/fpv4-sp/hard\libg.a(lib_a-sprintf.o)
                              ./main.o (sprintf)
c:/ti/ccs1011/ccs/tools/compiler/gcc-arm-none-eabi-7-2017-q4-major-win32/bin/../lib/gcc/arm-none-eabi/7.2.1/../../../../arm-none-eabi/lib/thumb/v7e-m/fpv4-sp/hard\libg.a(lib_a-strchr.o)
                              ./lwip/apps/httpserver_raw/httpd.o (strchr)
c:/ti/ccs1011/ccs/tools/compiler/gcc-arm-none-eabi-7-2017-q4-major-win32/bin/../lib/gcc/arm-none-eabi/7.2.1/../../../../arm-none-eabi/lib/thumb/v7e-m/fpv4-sp/hard\libg.a(lib_a-strcmp.o)
                              ./lwip/apps/httpserver_raw/fs.o (strcmp)
c:/ti/ccs1011/ccs/tools/compiler/gcc-arm-none-eabi-7-2017-q4-major-win32/bin/../lib/gcc/arm-none-eabi/7.2.1/../../../../arm-none-eabi/lib/thumb/v7e-m/fpv4-sp/hard\libg.a(lib_a-strlen.o)
                              ./lwip/apps/httpserver_raw/httpd.o (strlen)
c:/ti/ccs1011/ccs/tools/compiler/gcc-arm-none-eabi-7-2017-q4-major-win32/bin/../lib/gcc/arm-none-eabi/7.2.1/../../../../arm-none-eabi/lib/thumb/v7e-m/fpv4-sp/hard\libg.a(lib_a-strncmp.o)
                              ./lwip/apps/httpserver_raw/httpd.o (strncmp)
c:/ti/ccs1011/ccs/tools/compiler/gcc-arm-none-eabi-7-2017-q4-major-win32/bin/../lib/gcc/arm-none-eabi/7.2.1/../../../../arm-none-eabi/lib/thumb/v7e-m/fpv4-sp/hard\libg.a(lib_a-strncpy.o)
                              ./lwip/src/api/netdb.o (strncpy)
c:/ti/ccs1011/ccs/tools/compiler/gcc-arm-none-eabi-7-2017-q4-major-win32/bin/../lib/gcc/arm-none-eabi/7.2.1/../../../../arm-none-eabi/lib/thumb/v7e-m/fpv4-sp/hard\libg.a(lib_a-strstr.o)
                              ./lwip/apps/httpserver_raw/httpd.o (strstr)
c:/ti/ccs1011/ccs/tools/compiler/gcc-arm-none-eabi-7-2017-q4-major-win32/bin/../lib/gcc/arm-none-eabi/7.2.1/../../../../arm-none-eabi/lib/thumb/v7e-m/fpv4-sp/hard\libg.a(lib_a-strtol.o)
                              c:/ti/ccs1011/ccs/tools/compiler/gcc-arm-none-eabi-7-2017-q4-major-win32/bin/../lib/gcc/arm-none-eabi/7.2.1/../../../../arm-none-eabi/lib/thumb/v7e-m/fpv4-sp/hard\libg.a(lib_a-atoi.o) (_strtol_r)
c:/ti/ccs1011/ccs/tools/compiler/gcc-arm-none-eabi-7-2017-q4-major-win32/bin/../lib/gcc/arm-none-eabi/7.2.1/../../../../arm-none-eabi/lib/thumb/v7e-m/fpv4-sp/hard\libg.a(lib_a-svfprintf.o)
                              c:/ti/ccs1011/ccs/tools/compiler/gcc-arm-none-eabi-7-2017-q4-major-win32/bin/../lib/gcc/arm-none-eabi/7.2.1/../../../../arm-none-eabi/lib/thumb/v7e-m/fpv4-sp/hard\libg.a(lib_a-sprintf.o) (_svfprintf_r)
c:/ti/ccs1011/ccs/tools/compiler/gcc-arm-none-eabi-7-2017-q4-major-win32/bin/../lib/gcc/arm-none-eabi/7.2.1/../../../../arm-none-eabi/lib/thumb/v7e-m/fpv4-sp/hard\libg.a(lib_a-vfprintf.o)
                              c:/ti/ccs1011/ccs/tools/compiler/gcc-arm-none-eabi-7-2017-q4-major-win32/bin/../lib/gcc/arm-none-eabi/7.2.1/../../../../arm-none-eabi/lib/thumb/v7e-m/fpv4-sp/hard\libg.a(lib_a-printf.o) (_vfprintf_r)
c:/ti/ccs1011/ccs/tools/compiler/gcc-arm-none-eabi-7-2017-q4-major-win32/bin/../lib/gcc/arm-none-eabi/7.2.1/../../../../arm-none-eabi/lib/thumb/v7e-m/fpv4-sp/hard\libg.a(lib_a-wctomb_r.o)
                              c:/ti/ccs1011/ccs/tools/compiler/gcc-arm-none-eabi-7-2017-q4-major-win32/bin/../lib/gcc/arm-none-eabi/7.2.1/../../../../arm-none-eabi/lib/thumb/v7e-m/fpv4-sp/hard\libg.a(lib_a-locale.o) (__ascii_wctomb)
c:/ti/ccs1011/ccs/tools/compiler/gcc-arm-none-eabi-7-2017-q4-major-win32/bin/../lib/gcc/arm-none-eabi/7.2.1/../../../../arm-none-eabi/lib/thumb/v7e-m/fpv4-sp/hard\libg.a(lib_a-wsetup.o)
                              c:/ti/ccs1011/ccs/tools/compiler/gcc-arm-none-eabi-7-2017-q4-major-win32/bin/../lib/gcc/arm-none-eabi/7.2.1/../../../../arm-none-eabi/lib/thumb/v7e-m/fpv4-sp/hard\libg.a(lib_a-vfprintf.o) (__swsetup_r)
c:/ti/ccs1011/ccs/tools/compiler/gcc-arm-none-eabi-7-2017-q4-major-win32/bin/../lib/gcc/arm-none-eabi/7.2.1/../../../../arm-none-eabi/lib/thumb/v7e-m/fpv4-sp/hard\libg.a(lib_a-__call_atexit.o)
                              c:/ti/ccs1011/ccs/tools/compiler/gcc-arm-none-eabi-7-2017-q4-major-win32/bin/../lib/gcc/arm-none-eabi/7.2.1/../../../../arm-none-eabi/lib/thumb/v7e-m/fpv4-sp/hard\libg.a(lib_a-exit.o) (__call_exitprocs)
c:/ti/ccs1011/ccs/tools/compiler/gcc-arm-none-eabi-7-2017-q4-major-win32/bin/../lib/gcc/arm-none-eabi/7.2.1/../../../../arm-none-eabi/lib/thumb/v7e-m/fpv4-sp/hard\libg.a(lib_a-atexit.o)
                              c:/ti/ccs1011/ccs/tools/compiler/gcc-arm-none-eabi-7-2017-q4-major-win32/bin/../lib/gcc/arm-none-eabi/7.2.1/../../../../arm-none-eabi/lib/thumb/v7e-m/fpv4-sp/hard\libg.a(lib_a-__call_atexit.o) (atexit)
c:/ti/ccs1011/ccs/tools/compiler/gcc-arm-none-eabi-7-2017-q4-major-win32/bin/../lib/gcc/arm-none-eabi/7.2.1/../../../../arm-none-eabi/lib/thumb/v7e-m/fpv4-sp/hard\libg.a(lib_a-ctype_.o)
                              c:/ti/ccs1011/ccs/tools/compiler/gcc-arm-none-eabi-7-2017-q4-major-win32/bin/../lib/gcc/arm-none-eabi/7.2.1/../../../../arm-none-eabi/lib/thumb/v7e-m/fpv4-sp/hard\libg.a(lib_a-locale.o) (_ctype_)
c:/ti/ccs1011/ccs/tools/compiler/gcc-arm-none-eabi-7-2017-q4-major-win32/bin/../lib/gcc/arm-none-eabi/7.2.1/../../../../arm-none-eabi/lib/thumb/v7e-m/fpv4-sp/hard\libg.a(lib_a-dtoa.o)
                              c:/ti/ccs1011/ccs/tools/compiler/gcc-arm-none-eabi-7-2017-q4-major-win32/bin/../lib/gcc/arm-none-eabi/7.2.1/../../../../arm-none-eabi/lib/thumb/v7e-m/fpv4-sp/hard\libg.a(lib_a-svfprintf.o) (_dtoa_r)
c:/ti/ccs1011/ccs/tools/compiler/gcc-arm-none-eabi-7-2017-q4-major-win32/bin/../lib/gcc/arm-none-eabi/7.2.1/../../../../arm-none-eabi/lib/thumb/v7e-m/fpv4-sp/hard\libg.a(lib_a-fflush.o)
                              c:/ti/ccs1011/ccs/tools/compiler/gcc-arm-none-eabi-7-2017-q4-major-win32/bin/../lib/gcc/arm-none-eabi/7.2.1/../../../../arm-none-eabi/lib/thumb/v7e-m/fpv4-sp/hard\libg.a(lib_a-vfprintf.o) (_fflush_r)
c:/ti/ccs1011/ccs/tools/compiler/gcc-arm-none-eabi-7-2017-q4-major-win32/bin/../lib/gcc/arm-none-eabi/7.2.1/../../../../arm-none-eabi/lib/thumb/v7e-m/fpv4-sp/hard\libg.a(lib_a-findfp.o)
                              c:/ti/ccs1011/ccs/tools/compiler/gcc-arm-none-eabi-7-2017-q4-major-win32/bin/../lib/gcc/arm-none-eabi/7.2.1/../../../../arm-none-eabi/lib/thumb/v7e-m/fpv4-sp/hard\libg.a(lib_a-vfprintf.o) (__sinit)
c:/ti/ccs1011/ccs/tools/compiler/gcc-arm-none-eabi-7-2017-q4-major-win32/bin/../lib/gcc/arm-none-eabi/7.2.1/../../../../arm-none-eabi/lib/thumb/v7e-m/fpv4-sp/hard\libg.a(lib_a-fini.o)
                              c:/ti/ccs1011/ccs/tools/compiler/gcc-arm-none-eabi-7-2017-q4-major-win32/bin/../lib/gcc/arm-none-eabi/7.2.1/../../../../arm-none-eabi/lib/thumb/v7e-m/fpv4-sp/hard\libg.a(lib_a-__call_atexit.o) (__libc_fini_array)
c:/ti/ccs1011/ccs/tools/compiler/gcc-arm-none-eabi-7-2017-q4-major-win32/bin/../lib/gcc/arm-none-eabi/7.2.1/../../../../arm-none-eabi/lib/thumb/v7e-m/fpv4-sp/hard\libg.a(lib_a-freer.o)
                              c:/ti/ccs1011/ccs/tools/compiler/gcc-arm-none-eabi-7-2017-q4-major-win32/bin/../lib/gcc/arm-none-eabi/7.2.1/../../../../arm-none-eabi/lib/thumb/v7e-m/fpv4-sp/hard\libg.a(lib_a-reent.o) (_free_r)
c:/ti/ccs1011/ccs/tools/compiler/gcc-arm-none-eabi-7-2017-q4-major-win32/bin/../lib/gcc/arm-none-eabi/7.2.1/../../../../arm-none-eabi/lib/thumb/v7e-m/fpv4-sp/hard\libg.a(lib_a-fwalk.o)
                              c:/ti/ccs1011/ccs/tools/compiler/gcc-arm-none-eabi-7-2017-q4-major-win32/bin/../lib/gcc/arm-none-eabi/7.2.1/../../../../arm-none-eabi/lib/thumb/v7e-m/fpv4-sp/hard\libg.a(lib_a-findfp.o) (_fwalk)
c:/ti/ccs1011/ccs/tools/compiler/gcc-arm-none-eabi-7-2017-q4-major-win32/bin/../lib/gcc/arm-none-eabi/7.2.1/../../../../arm-none-eabi/lib/thumb/v7e-m/fpv4-sp/hard\libg.a(lib_a-localeconv.o)
                              c:/ti/ccs1011/ccs/tools/compiler/gcc-arm-none-eabi-7-2017-q4-major-win32/bin/../lib/gcc/arm-none-eabi/7.2.1/../../../../arm-none-eabi/lib/thumb/v7e-m/fpv4-sp/hard\libg.a(lib_a-svfprintf.o) (_localeconv_r)
c:/ti/ccs1011/ccs/tools/compiler/gcc-arm-none-eabi-7-2017-q4-major-win32/bin/../lib/gcc/arm-none-eabi/7.2.1/../../../../arm-none-eabi/lib/thumb/v7e-m/fpv4-sp/hard\libg.a(lib_a-lock.o)
                              c:/ti/ccs1011/ccs/tools/compiler/gcc-arm-none-eabi-7-2017-q4-major-win32/bin/../lib/gcc/arm-none-eabi/7.2.1/../../../../arm-none-eabi/lib/thumb/v7e-m/fpv4-sp/hard\libg.a(lib_a-vfprintf.o) (__retarget_lock_init_recursive)
c:/ti/ccs1011/ccs/tools/compiler/gcc-arm-none-eabi-7-2017-q4-major-win32/bin/../lib/gcc/arm-none-eabi/7.2.1/../../../../arm-none-eabi/lib/thumb/v7e-m/fpv4-sp/hard\libg.a(lib_a-makebuf.o)
                              c:/ti/ccs1011/ccs/tools/compiler/gcc-arm-none-eabi-7-2017-q4-major-win32/bin/../lib/gcc/arm-none-eabi/7.2.1/../../../../arm-none-eabi/lib/thumb/v7e-m/fpv4-sp/hard\libg.a(lib_a-wsetup.o) (__smakebuf_r)
c:/ti/ccs1011/ccs/tools/compiler/gcc-arm-none-eabi-7-2017-q4-major-win32/bin/../lib/gcc/arm-none-eabi/7.2.1/../../../../arm-none-eabi/lib/thumb/v7e-m/fpv4-sp/hard\libg.a(lib_a-mallocr.o)
                              c:/ti/ccs1011/ccs/tools/compiler/gcc-arm-none-eabi-7-2017-q4-major-win32/bin/../lib/gcc/arm-none-eabi/7.2.1/../../../../arm-none-eabi/lib/thumb/v7e-m/fpv4-sp/hard\libg.a(lib_a-svfprintf.o) (_malloc_r)
c:/ti/ccs1011/ccs/tools/compiler/gcc-arm-none-eabi-7-2017-q4-major-win32/bin/../lib/gcc/arm-none-eabi/7.2.1/../../../../arm-none-eabi/lib/thumb/v7e-m/fpv4-sp/hard\libg.a(lib_a-memchr.o)
                              c:/ti/ccs1011/ccs/tools/compiler/gcc-arm-none-eabi-7-2017-q4-major-win32/bin/../lib/gcc/arm-none-eabi/7.2.1/../../../../arm-none-eabi/lib/thumb/v7e-m/fpv4-sp/hard\libg.a(lib_a-strstr.o) (memchr)
c:/ti/ccs1011/ccs/tools/compiler/gcc-arm-none-eabi-7-2017-q4-major-win32/bin/../lib/gcc/arm-none-eabi/7.2.1/../../../../arm-none-eabi/lib/thumb/v7e-m/fpv4-sp/hard\libg.a(lib_a-mlock.o)
                              c:/ti/ccs1011/ccs/tools/compiler/gcc-arm-none-eabi-7-2017-q4-major-win32/bin/../lib/gcc/arm-none-eabi/7.2.1/../../../../arm-none-eabi/lib/thumb/v7e-m/fpv4-sp/hard\libg.a(lib_a-freer.o) (__malloc_lock)
c:/ti/ccs1011/ccs/tools/compiler/gcc-arm-none-eabi-7-2017-q4-major-win32/bin/../lib/gcc/arm-none-eabi/7.2.1/../../../../arm-none-eabi/lib/thumb/v7e-m/fpv4-sp/hard\libg.a(lib_a-mprec.o)
                              c:/ti/ccs1011/ccs/tools/compiler/gcc-arm-none-eabi-7-2017-q4-major-win32/bin/../lib/gcc/arm-none-eabi/7.2.1/../../../../arm-none-eabi/lib/thumb/v7e-m/fpv4-sp/hard\libg.a(lib_a-dtoa.o) (_Balloc)
c:/ti/ccs1011/ccs/tools/compiler/gcc-arm-none-eabi-7-2017-q4-major-win32/bin/../lib/gcc/arm-none-eabi/7.2.1/../../../../arm-none-eabi/lib/thumb/v7e-m/fpv4-sp/hard\libg.a(lib_a-sbrkr.o)
                              c:/ti/ccs1011/ccs/tools/compiler/gcc-arm-none-eabi-7-2017-q4-major-win32/bin/../lib/gcc/arm-none-eabi/7.2.1/../../../../arm-none-eabi/lib/thumb/v7e-m/fpv4-sp/hard\libg.a(lib_a-freer.o) (_sbrk_r)
c:/ti/ccs1011/ccs/tools/compiler/gcc-arm-none-eabi-7-2017-q4-major-win32/bin/../lib/gcc/arm-none-eabi/7.2.1/../../../../arm-none-eabi/lib/thumb/v7e-m/fpv4-sp/hard\libg.a(lib_a-stdio.o)
                              c:/ti/ccs1011/ccs/tools/compiler/gcc-arm-none-eabi-7-2017-q4-major-win32/bin/../lib/gcc/arm-none-eabi/7.2.1/../../../../arm-none-eabi/lib/thumb/v7e-m/fpv4-sp/hard\libg.a(lib_a-findfp.o) (__sread)
c:/ti/ccs1011/ccs/tools/compiler/gcc-arm-none-eabi-7-2017-q4-major-win32/bin/../lib/gcc/arm-none-eabi/7.2.1/../../../../arm-none-eabi/lib/thumb/v7e-m/fpv4-sp/hard\libg.a(lib_a-svfiprintf.o)
                              c:/ti/ccs1011/ccs/tools/compiler/gcc-arm-none-eabi-7-2017-q4-major-win32/bin/../lib/gcc/arm-none-eabi/7.2.1/../../../../arm-none-eabi/lib/thumb/v7e-m/fpv4-sp/hard\libg.a(lib_a-svfprintf.o) (__ssprint_r)
c:/ti/ccs1011/ccs/tools/compiler/gcc-arm-none-eabi-7-2017-q4-major-win32/bin/../lib/gcc/arm-none-eabi/7.2.1/../../../../arm-none-eabi/lib/thumb/v7e-m/fpv4-sp/hard\libg.a(lib_a-vfiprintf.o)
                              c:/ti/ccs1011/ccs/tools/compiler/gcc-arm-none-eabi-7-2017-q4-major-win32/bin/../lib/gcc/arm-none-eabi/7.2.1/../../../../arm-none-eabi/lib/thumb/v7e-m/fpv4-sp/hard\libg.a(lib_a-vfprintf.o) (__sprint_r)
c:/ti/ccs1011/ccs/tools/compiler/gcc-arm-none-eabi-7-2017-q4-major-win32/bin/../lib/gcc/arm-none-eabi/7.2.1/../../../../arm-none-eabi/lib/thumb/v7e-m/fpv4-sp/hard\libg.a(lib_a-writer.o)
                              c:/ti/ccs1011/ccs/tools/compiler/gcc-arm-none-eabi-7-2017-q4-major-win32/bin/../lib/gcc/arm-none-eabi/7.2.1/../../../../arm-none-eabi/lib/thumb/v7e-m/fpv4-sp/hard\libg.a(lib_a-stdio.o) (_write_r)
c:/ti/ccs1011/ccs/tools/compiler/gcc-arm-none-eabi-7-2017-q4-major-win32/bin/../lib/gcc/arm-none-eabi/7.2.1/../../../../arm-none-eabi/lib/thumb/v7e-m/fpv4-sp/hard\libg.a(lib_a-__atexit.o)
                              c:/ti/ccs1011/ccs/tools/compiler/gcc-arm-none-eabi-7-2017-q4-major-win32/bin/../lib/gcc/arm-none-eabi/7.2.1/../../../../arm-none-eabi/lib/thumb/v7e-m/fpv4-sp/hard\libg.a(lib_a-atexit.o) (__register_exitproc)
c:/ti/ccs1011/ccs/tools/compiler/gcc-arm-none-eabi-7-2017-q4-major-win32/bin/../lib/gcc/arm-none-eabi/7.2.1/../../../../arm-none-eabi/lib/thumb/v7e-m/fpv4-sp/hard\libg.a(lib_a-callocr.o)
                              c:/ti/ccs1011/ccs/tools/compiler/gcc-arm-none-eabi-7-2017-q4-major-win32/bin/../lib/gcc/arm-none-eabi/7.2.1/../../../../arm-none-eabi/lib/thumb/v7e-m/fpv4-sp/hard\libg.a(lib_a-mprec.o) (_calloc_r)
c:/ti/ccs1011/ccs/tools/compiler/gcc-arm-none-eabi-7-2017-q4-major-win32/bin/../lib/gcc/arm-none-eabi/7.2.1/../../../../arm-none-eabi/lib/thumb/v7e-m/fpv4-sp/hard\libg.a(lib_a-closer.o)
                              c:/ti/ccs1011/ccs/tools/compiler/gcc-arm-none-eabi-7-2017-q4-major-win32/bin/../lib/gcc/arm-none-eabi/7.2.1/../../../../arm-none-eabi/lib/thumb/v7e-m/fpv4-sp/hard\libg.a(lib_a-stdio.o) (_close_r)
c:/ti/ccs1011/ccs/tools/compiler/gcc-arm-none-eabi-7-2017-q4-major-win32/bin/../lib/gcc/arm-none-eabi/7.2.1/../../../../arm-none-eabi/lib/thumb/v7e-m/fpv4-sp/hard\libg.a(lib_a-fclose.o)
                              c:/ti/ccs1011/ccs/tools/compiler/gcc-arm-none-eabi-7-2017-q4-major-win32/bin/../lib/gcc/arm-none-eabi/7.2.1/../../../../arm-none-eabi/lib/thumb/v7e-m/fpv4-sp/hard\libg.a(lib_a-findfp.o) (_fclose_r)
c:/ti/ccs1011/ccs/tools/compiler/gcc-arm-none-eabi-7-2017-q4-major-win32/bin/../lib/gcc/arm-none-eabi/7.2.1/../../../../arm-none-eabi/lib/thumb/v7e-m/fpv4-sp/hard\libg.a(lib_a-fputwc.o)
                              c:/ti/ccs1011/ccs/tools/compiler/gcc-arm-none-eabi-7-2017-q4-major-win32/bin/../lib/gcc/arm-none-eabi/7.2.1/../../../../arm-none-eabi/lib/thumb/v7e-m/fpv4-sp/hard\libg.a(lib_a-vfiprintf.o) (_fputwc_r)
c:/ti/ccs1011/ccs/tools/compiler/gcc-arm-none-eabi-7-2017-q4-major-win32/bin/../lib/gcc/arm-none-eabi/7.2.1/../../../../arm-none-eabi/lib/thumb/v7e-m/fpv4-sp/hard\libg.a(lib_a-fstatr.o)
                              c:/ti/ccs1011/ccs/tools/compiler/gcc-arm-none-eabi-7-2017-q4-major-win32/bin/../lib/gcc/arm-none-eabi/7.2.1/../../../../arm-none-eabi/lib/thumb/v7e-m/fpv4-sp/hard\libg.a(lib_a-makebuf.o) (_fstat_r)
c:/ti/ccs1011/ccs/tools/compiler/gcc-arm-none-eabi-7-2017-q4-major-win32/bin/../lib/gcc/arm-none-eabi/7.2.1/../../../../arm-none-eabi/lib/thumb/v7e-m/fpv4-sp/hard\libg.a(lib_a-fvwrite.o)
                              c:/ti/ccs1011/ccs/tools/compiler/gcc-arm-none-eabi-7-2017-q4-major-win32/bin/../lib/gcc/arm-none-eabi/7.2.1/../../../../arm-none-eabi/lib/thumb/v7e-m/fpv4-sp/hard\libg.a(lib_a-vfiprintf.o) (__sfvwrite_r)
c:/ti/ccs1011/ccs/tools/compiler/gcc-arm-none-eabi-7-2017-q4-major-win32/bin/../lib/gcc/arm-none-eabi/7.2.1/../../../../arm-none-eabi/lib/thumb/v7e-m/fpv4-sp/hard\libg.a(lib_a-isattyr.o)
                              c:/ti/ccs1011/ccs/tools/compiler/gcc-arm-none-eabi-7-2017-q4-major-win32/bin/../lib/gcc/arm-none-eabi/7.2.1/../../../../arm-none-eabi/lib/thumb/v7e-m/fpv4-sp/hard\libg.a(lib_a-makebuf.o) (_isatty_r)
c:/ti/ccs1011/ccs/tools/compiler/gcc-arm-none-eabi-7-2017-q4-major-win32/bin/../lib/gcc/arm-none-eabi/7.2.1/../../../../arm-none-eabi/lib/thumb/v7e-m/fpv4-sp/hard\libg.a(lib_a-lseekr.o)
                              c:/ti/ccs1011/ccs/tools/compiler/gcc-arm-none-eabi-7-2017-q4-major-win32/bin/../lib/gcc/arm-none-eabi/7.2.1/../../../../arm-none-eabi/lib/thumb/v7e-m/fpv4-sp/hard\libg.a(lib_a-stdio.o) (_lseek_r)
c:/ti/ccs1011/ccs/tools/compiler/gcc-arm-none-eabi-7-2017-q4-major-win32/bin/../lib/gcc/arm-none-eabi/7.2.1/../../../../arm-none-eabi/lib/thumb/v7e-m/fpv4-sp/hard\libg.a(lib_a-readr.o)
                              c:/ti/ccs1011/ccs/tools/compiler/gcc-arm-none-eabi-7-2017-q4-major-win32/bin/../lib/gcc/arm-none-eabi/7.2.1/../../../../arm-none-eabi/lib/thumb/v7e-m/fpv4-sp/hard\libg.a(lib_a-stdio.o) (_read_r)
c:/ti/ccs1011/ccs/tools/compiler/gcc-arm-none-eabi-7-2017-q4-major-win32/bin/../lib/gcc/arm-none-eabi/7.2.1/../../../../arm-none-eabi/lib/thumb/v7e-m/fpv4-sp/hard\libg.a(lib_a-reallocr.o)
                              c:/ti/ccs1011/ccs/tools/compiler/gcc-arm-none-eabi-7-2017-q4-major-win32/bin/../lib/gcc/arm-none-eabi/7.2.1/../../../../arm-none-eabi/lib/thumb/v7e-m/fpv4-sp/hard\libg.a(lib_a-svfiprintf.o) (_realloc_r)
c:/ti/ccs1011/ccs/tools/compiler/gcc-arm-none-eabi-7-2017-q4-major-win32/bin/../lib/gcc/arm-none-eabi/7.2.1/../../../../arm-none-eabi/lib/thumb/v7e-m/fpv4-sp/hard\libg.a(lib_a-wbuf.o)
                              c:/ti/ccs1011/ccs/tools/compiler/gcc-arm-none-eabi-7-2017-q4-major-win32/bin/../lib/gcc/arm-none-eabi/7.2.1/../../../../arm-none-eabi/lib/thumb/v7e-m/fpv4-sp/hard\libg.a(lib_a-fputwc.o) (__swbuf_r)
c:/ti/ccs1011/ccs/tools/compiler/gcc-arm-none-eabi-7-2017-q4-major-win32/bin/../lib/gcc/arm-none-eabi/7.2.1/../../../../arm-none-eabi/lib/thumb/v7e-m/fpv4-sp/hard\libg.a(lib_a-wcrtomb.o)
                              c:/ti/ccs1011/ccs/tools/compiler/gcc-arm-none-eabi-7-2017-q4-major-win32/bin/../lib/gcc/arm-none-eabi/7.2.1/../../../../arm-none-eabi/lib/thumb/v7e-m/fpv4-sp/hard\libg.a(lib_a-fputwc.o) (_wcrtomb_r)
c:/ti/ccs1011/ccs/tools/compiler/gcc-arm-none-eabi-7-2017-q4-major-win32/bin/../lib/gcc/arm-none-eabi/7.2.1/thumb/v7e-m/fpv4-sp/hard\libgcc.a(_arm_addsubdf3.o)
                              c:/ti/ccs1011/ccs/tools/compiler/gcc-arm-none-eabi-7-2017-q4-major-win32/bin/../lib/gcc/arm-none-eabi/7.2.1/../../../../arm-none-eabi/lib/thumb/v7e-m/fpv4-sp/hard\libg.a(lib_a-dtoa.o) (__aeabi_dsub)
c:/ti/ccs1011/ccs/tools/compiler/gcc-arm-none-eabi-7-2017-q4-major-win32/bin/../lib/gcc/arm-none-eabi/7.2.1/thumb/v7e-m/fpv4-sp/hard\libgcc.a(_arm_muldivdf3.o)
                              c:/ti/ccs1011/ccs/tools/compiler/gcc-arm-none-eabi-7-2017-q4-major-win32/bin/../lib/gcc/arm-none-eabi/7.2.1/../../../../arm-none-eabi/lib/thumb/v7e-m/fpv4-sp/hard\libg.a(lib_a-dtoa.o) (__aeabi_dmul)
c:/ti/ccs1011/ccs/tools/compiler/gcc-arm-none-eabi-7-2017-q4-major-win32/bin/../lib/gcc/arm-none-eabi/7.2.1/thumb/v7e-m/fpv4-sp/hard\libgcc.a(_arm_cmpdf2.o)
                              c:/ti/ccs1011/ccs/tools/compiler/gcc-arm-none-eabi-7-2017-q4-major-win32/bin/../lib/gcc/arm-none-eabi/7.2.1/../../../../arm-none-eabi/lib/thumb/v7e-m/fpv4-sp/hard\libg.a(lib_a-svfprintf.o) (__aeabi_dcmpeq)
c:/ti/ccs1011/ccs/tools/compiler/gcc-arm-none-eabi-7-2017-q4-major-win32/bin/../lib/gcc/arm-none-eabi/7.2.1/thumb/v7e-m/fpv4-sp/hard\libgcc.a(_arm_unorddf2.o)
                              c:/ti/ccs1011/ccs/tools/compiler/gcc-arm-none-eabi-7-2017-q4-major-win32/bin/../lib/gcc/arm-none-eabi/7.2.1/../../../../arm-none-eabi/lib/thumb/v7e-m/fpv4-sp/hard\libg.a(lib_a-svfprintf.o) (__aeabi_dcmpun)
c:/ti/ccs1011/ccs/tools/compiler/gcc-arm-none-eabi-7-2017-q4-major-win32/bin/../lib/gcc/arm-none-eabi/7.2.1/thumb/v7e-m/fpv4-sp/hard\libgcc.a(_arm_fixdfsi.o)
                              c:/ti/ccs1011/ccs/tools/compiler/gcc-arm-none-eabi-7-2017-q4-major-win32/bin/../lib/gcc/arm-none-eabi/7.2.1/../../../../arm-none-eabi/lib/thumb/v7e-m/fpv4-sp/hard\libg.a(lib_a-dtoa.o) (__aeabi_d2iz)
c:/ti/ccs1011/ccs/tools/compiler/gcc-arm-none-eabi-7-2017-q4-major-win32/bin/../lib/gcc/arm-none-eabi/7.2.1/thumb/v7e-m/fpv4-sp/hard\libgcc.a(_aeabi_uldivmod.o)
                              c:/ti/ccs1011/ccs/tools/compiler/gcc-arm-none-eabi-7-2017-q4-major-win32/bin/../lib/gcc/arm-none-eabi/7.2.1/../../../../arm-none-eabi/lib/thumb/v7e-m/fpv4-sp/hard\libg.a(lib_a-svfprintf.o) (__aeabi_uldivmod)
c:/ti/ccs1011/ccs/tools/compiler/gcc-arm-none-eabi-7-2017-q4-major-win32/bin/../lib/gcc/arm-none-eabi/7.2.1/thumb/v7e-m/fpv4-sp/hard\libgcc.a(_udivmoddi4.o)
                              c:/ti/ccs1011/ccs/tools/compiler/gcc-arm-none-eabi-7-2017-q4-major-win32/bin/../lib/gcc/arm-none-eabi/7.2.1/thumb/v7e-m/fpv4-sp/hard\libgcc.a(_aeabi_uldivmod.o) (__udivmoddi4)
c:/ti/ccs1011/ccs/tools/compiler/gcc-arm-none-eabi-7-2017-q4-major-win32/bin/../lib/gcc/arm-none-eabi/7.2.1/thumb/v7e-m/fpv4-sp/hard\libgcc.a(_dvmd_tls.o)
                              c:/ti/ccs1011/ccs/tools/compiler/gcc-arm-none-eabi-7-2017-q4-major-win32/bin/../lib/gcc/arm-none-eabi/7.2.1/thumb/v7e-m/fpv4-sp/hard\libgcc.a(_aeabi_uldivmod.o) (__aeabi_ldiv0)
c:/ti/ccs1011/ccs/tools/compiler/gcc-arm-none-eabi-7-2017-q4-major-win32/bin/../lib/gcc/arm-none-eabi/7.2.1/../../../../arm-none-eabi/lib/thumb/v7e-m/fpv4-sp/hard\libnosys.a(close.o)
                              c:/ti/ccs1011/ccs/tools/compiler/gcc-arm-none-eabi-7-2017-q4-major-win32/bin/../lib/gcc/arm-none-eabi/7.2.1/../../../../arm-none-eabi/lib/thumb/v7e-m/fpv4-sp/hard\libg.a(lib_a-closer.o) (_close)
c:/ti/ccs1011/ccs/tools/compiler/gcc-arm-none-eabi-7-2017-q4-major-win32/bin/../lib/gcc/arm-none-eabi/7.2.1/../../../../arm-none-eabi/lib/thumb/v7e-m/fpv4-sp/hard\libnosys.a(fstat.o)
                              c:/ti/ccs1011/ccs/tools/compiler/gcc-arm-none-eabi-7-2017-q4-major-win32/bin/../lib/gcc/arm-none-eabi/7.2.1/../../../../arm-none-eabi/lib/thumb/v7e-m/fpv4-sp/hard\libg.a(lib_a-fstatr.o) (_fstat)
c:/ti/ccs1011/ccs/tools/compiler/gcc-arm-none-eabi-7-2017-q4-major-win32/bin/../lib/gcc/arm-none-eabi/7.2.1/../../../../arm-none-eabi/lib/thumb/v7e-m/fpv4-sp/hard\libnosys.a(isatty.o)
                              c:/ti/ccs1011/ccs/tools/compiler/gcc-arm-none-eabi-7-2017-q4-major-win32/bin/../lib/gcc/arm-none-eabi/7.2.1/../../../../arm-none-eabi/lib/thumb/v7e-m/fpv4-sp/hard\libg.a(lib_a-isattyr.o) (_isatty)
c:/ti/ccs1011/ccs/tools/compiler/gcc-arm-none-eabi-7-2017-q4-major-win32/bin/../lib/gcc/arm-none-eabi/7.2.1/../../../../arm-none-eabi/lib/thumb/v7e-m/fpv4-sp/hard\libnosys.a(lseek.o)
                              c:/ti/ccs1011/ccs/tools/compiler/gcc-arm-none-eabi-7-2017-q4-major-win32/bin/../lib/gcc/arm-none-eabi/7.2.1/../../../../arm-none-eabi/lib/thumb/v7e-m/fpv4-sp/hard\libg.a(lib_a-lseekr.o) (_lseek)
c:/ti/ccs1011/ccs/tools/compiler/gcc-arm-none-eabi-7-2017-q4-major-win32/bin/../lib/gcc/arm-none-eabi/7.2.1/../../../../arm-none-eabi/lib/thumb/v7e-m/fpv4-sp/hard\libnosys.a(read.o)
                              c:/ti/ccs1011/ccs/tools/compiler/gcc-arm-none-eabi-7-2017-q4-major-win32/bin/../lib/gcc/arm-none-eabi/7.2.1/../../../../arm-none-eabi/lib/thumb/v7e-m/fpv4-sp/hard\libg.a(lib_a-readr.o) (_read)
c:/ti/ccs1011/ccs/tools/compiler/gcc-arm-none-eabi-7-2017-q4-major-win32/bin/../lib/gcc/arm-none-eabi/7.2.1/../../../../arm-none-eabi/lib/thumb/v7e-m/fpv4-sp/hard\libnosys.a(sbrk.o)
                              c:/ti/ccs1011/ccs/tools/compiler/gcc-arm-none-eabi-7-2017-q4-major-win32/bin/../lib/gcc/arm-none-eabi/7.2.1/../../../../arm-none-eabi/lib/thumb/v7e-m/fpv4-sp/hard\libg.a(lib_a-sbrkr.o) (_sbrk)
c:/ti/ccs1011/ccs/tools/compiler/gcc-arm-none-eabi-7-2017-q4-major-win32/bin/../lib/gcc/arm-none-eabi/7.2.1/../../../../arm-none-eabi/lib/thumb/v7e-m/fpv4-sp/hard\libnosys.a(write.o)
                              c:/ti/ccs1011/ccs/tools/compiler/gcc-arm-none-eabi-7-2017-q4-major-win32/bin/../lib/gcc/arm-none-eabi/7.2.1/../../../../arm-none-eabi/lib/thumb/v7e-m/fpv4-sp/hard\libg.a(lib_a-writer.o) (_write)
c:/ti/ccs1011/ccs/tools/compiler/gcc-arm-none-eabi-7-2017-q4-major-win32/bin/../lib/gcc/arm-none-eabi/7.2.1/../../../../arm-none-eabi/lib/thumb/v7e-m/fpv4-sp/hard\libnosys.a(_exit.o)
                              c:/ti/ccs1011/ccs/tools/compiler/gcc-arm-none-eabi-7-2017-q4-major-win32/bin/../lib/gcc/arm-none-eabi/7.2.1/../../../../arm-none-eabi/lib/thumb/v7e-m/fpv4-sp/hard\libg.a(lib_a-exit.o) (_exit)

Allocating common symbols
Common symbol       size              file

memp_memory_NETDB_base
                    0x137             ./lwip/src/core/memp.o
netif_list          0x4               ./lwip/src/core/netif.o
__lock___atexit_recursive_mutex
                    0x1               c:/ti/ccs1011/ccs/tools/compiler/gcc-arm-none-eabi-7-2017-q4-major-win32/bin/../lib/gcc/arm-none-eabi/7.2.1/../../../../arm-none-eabi/lib/thumb/v7e-m/fpv4-sp/hard\libg.a(lib_a-lock.o)
g_ui32IPAddress     0x4               ./main.o
__lock___arc4random_mutex
                    0x1               c:/ti/ccs1011/ccs/tools/compiler/gcc-arm-none-eabi-7-2017-q4-major-win32/bin/../lib/gcc/arm-none-eabi/7.2.1/../../../../arm-none-eabi/lib/thumb/v7e-m/fpv4-sp/hard\libg.a(lib_a-lock.o)
lock_tcpip_core     0x4               ./lwip/src/api/tcpip.o
ip_data             0x18              ./lwip/src/core/ip.o
memp_memory_NETBUF_base
                    0x23              ./lwip/src/core/memp.o
tcp_active_pcbs_changed
                    0x1               ./lwip/src/core/tcp.o
tcp_active_pcbs     0x4               ./lwip/src/core/tcp.o
udp_pcbs            0x4               ./lwip/src/core/udp.o
errno               0x4               c:/ti/ccs1011/ccs/tools/compiler/gcc-arm-none-eabi-7-2017-q4-major-win32/bin/../lib/gcc/arm-none-eabi/7.2.1/../../../../arm-none-eabi/lib/thumb/v7e-m/fpv4-sp/hard\libg.a(lib_a-reent.o)
g_sDriverStats      0x2c              ./lwip/port/tiva-tm4c129.o
memp_memory_TCPIP_MSG_INPKT_base
                    0x83              ./lwip/src/core/memp.o
tcp_ticks           0x4               ./lwip/src/core/tcp.o
tcp_listen_pcbs     0x4               ./lwip/src/core/tcp.o
memp_memory_TCP_SEG_base
                    0x103             ./lwip/src/core/memp.o
xQueueRegistry      0x40              ./FreeRTOS/queue.o
memp_memory_PBUF_POOL_base
                    0x6043            ./lwip/src/core/memp.o
__lock___env_recursive_mutex
                    0x1               c:/ti/ccs1011/ccs/tools/compiler/gcc-arm-none-eabi-7-2017-q4-major-win32/bin/../lib/gcc/arm-none-eabi/7.2.1/../../../../arm-none-eabi/lib/thumb/v7e-m/fpv4-sp/hard\libg.a(lib_a-lock.o)
__lock___sinit_recursive_mutex
                    0x1               c:/ti/ccs1011/ccs/tools/compiler/gcc-arm-none-eabi-7-2017-q4-major-win32/bin/../lib/gcc/arm-none-eabi/7.2.1/../../../../arm-none-eabi/lib/thumb/v7e-m/fpv4-sp/hard\libg.a(lib_a-lock.o)
g_pTxDescriptors    0x360             ./lwip/port/tiva-tm4c129.o
memp_memory_FRAG_PBUF_base
                    0x16b             ./lwip/src/core/memp.o
memp_memory_TCPIP_MSG_API_base
                    0x83              ./lwip/src/core/memp.o
h_errno             0x4               ./lwip/src/api/netdb.o
__lock___malloc_recursive_mutex
                    0x1               c:/ti/ccs1011/ccs/tools/compiler/gcc-arm-none-eabi-7-2017-q4-major-win32/bin/../lib/gcc/arm-none-eabi/7.2.1/../../../../arm-none-eabi/lib/thumb/v7e-m/fpv4-sp/hard\libg.a(lib_a-lock.o)
g_pRxDescriptors    0x120             ./lwip/port/tiva-tm4c129.o
tcp_input_pcb       0x4               ./lwip/src/core/tcp_in.o
dhcp_rx_options_given
                    0xa               ./lwip/src/core/ipv4/dhcp.o
memp_memory_PBUF_base
                    0x203             ./lwip/src/core/memp.o
tcp_bound_pcbs      0x4               ./lwip/src/core/tcp.o
sNetIF              0x38              ./main.o
memp_memory_TCP_PCB_LISTEN_base
                    0xe3              ./lwip/src/core/memp.o
memp_memory_REASSDATA_base
                    0xa3              ./lwip/src/core/memp.o
g_pfnTimerHandler   0x4               ./lwip/lwiplib.o
memp_memory_UDP_PCB_base
                    0x143             ./lwip/src/core/memp.o
lwip_sys_mutex      0x4               ./lwip/system/OS/sys_arch.o
tcp_tw_pcbs         0x4               ./lwip/src/core/tcp.o
memp_memory_NETCONN_base
                    0x303             ./lwip/src/core/memp.o
__lock___at_quick_exit_mutex
                    0x1               c:/ti/ccs1011/ccs/tools/compiler/gcc-arm-none-eabi-7-2017-q4-major-win32/bin/../lib/gcc/arm-none-eabi/7.2.1/../../../../arm-none-eabi/lib/thumb/v7e-m/fpv4-sp/hard\libg.a(lib_a-lock.o)
netif_default       0x4               ./lwip/src/core/netif.o
dhcp_rx_options_val
                    0x28              ./lwip/src/core/ipv4/dhcp.o
g_ui32SysClock      0x4               ./main.o
memp_memory_TCP_PCB_base
                    0x983             ./lwip/src/core/memp.o
memp_memory_SYS_TIMEOUT_base
                    0xa3              ./lwip/src/core/memp.o
g_ui32AbnormalInts  0x4               ./lwip/port/tiva-tm4c129.o
__lock___dd_hash_mutex
                    0x1               c:/ti/ccs1011/ccs/tools/compiler/gcc-arm-none-eabi-7-2017-q4-major-win32/bin/../lib/gcc/arm-none-eabi/7.2.1/../../../../arm-none-eabi/lib/thumb/v7e-m/fpv4-sp/hard\libg.a(lib_a-lock.o)
__lock___tz_mutex   0x1               c:/ti/ccs1011/ccs/tools/compiler/gcc-arm-none-eabi-7-2017-q4-major-win32/bin/../lib/gcc/arm-none-eabi/7.2.1/../../../../arm-none-eabi/lib/thumb/v7e-m/fpv4-sp/hard\libg.a(lib_a-lock.o)
g_ui32NormalInts    0x4               ./lwip/port/tiva-tm4c129.o
ram_heap            0x4013            ./lwip/src/core/mem.o
__lock___sfp_recursive_mutex
                    0x1               c:/ti/ccs1011/ccs/tools/compiler/gcc-arm-none-eabi-7-2017-q4-major-win32/bin/../lib/gcc/arm-none-eabi/7.2.1/../../../../arm-none-eabi/lib/thumb/v7e-m/fpv4-sp/hard\libg.a(lib_a-lock.o)

Memory Configuration

Name             Origin             Length             Attributes
FLASH            0x00000000         0x00100000         xr
SRAM             0x20000000         0x00040000         xw
*default*        0x00000000         0xffffffff

Linker script and memory map

LOAD c:/ti/ccs1011/ccs/tools/compiler/gcc-arm-none-eabi-7-2017-q4-major-win32/bin/../lib/gcc/arm-none-eabi/7.2.1/thumb/v7e-m/fpv4-sp/hard/crti.o
LOAD c:/ti/ccs1011/ccs/tools/compiler/gcc-arm-none-eabi-7-2017-q4-major-win32/bin/../lib/gcc/arm-none-eabi/7.2.1/thumb/v7e-m/fpv4-sp/hard/crtbegin.o
LOAD c:/ti/ccs1011/ccs/tools/compiler/gcc-arm-none-eabi-7-2017-q4-major-win32/bin/../lib/gcc/arm-none-eabi/7.2.1/../../../../arm-none-eabi/lib/thumb/v7e-m/fpv4-sp/hard/crt0.o
LOAD ./main.o
LOAD ./tm4c1294ncpdt_startup_ccs_gcc.o
LOAD ./Drivers/pinout.o
LOAD ./FreeRTOS/CMSIS_RTOS/cmsis_os.o
LOAD ./FreeRTOS/croutine.o
LOAD ./FreeRTOS/event_groups.o
LOAD ./FreeRTOS/list.o
LOAD ./FreeRTOS/queue.o
LOAD ./FreeRTOS/stream_buffer.o
LOAD ./FreeRTOS/tasks.o
LOAD ./FreeRTOS/timers.o
LOAD ./FreeRTOS/portable/GCC/ARM_CM4F/port.o
LOAD ./FreeRTOS/portable/MemMang/heap_4.o
LOAD ./lwip/apps/httpserver_raw/fs.o
LOAD ./lwip/apps/httpserver_raw/httpd.o
LOAD ./lwip/lwiplib.o
LOAD ./lwip/port/tiva-tm4c129.o
LOAD ./lwip/src/api/api_lib.o
LOAD ./lwip/src/api/api_msg.o
LOAD ./lwip/src/api/err.o
LOAD ./lwip/src/api/if_api.o
LOAD ./lwip/src/api/netbuf.o
LOAD ./lwip/src/api/netdb.o
LOAD ./lwip/src/api/netifapi.o
LOAD ./lwip/src/api/sockets.o
LOAD ./lwip/src/api/tcpip.o
LOAD ./lwip/src/core/altcp.o
LOAD ./lwip/src/core/altcp_alloc.o
LOAD ./lwip/src/core/altcp_tcp.o
LOAD ./lwip/src/core/def.o
LOAD ./lwip/src/core/dns.o
LOAD ./lwip/src/core/inet_chksum.o
LOAD ./lwip/src/core/init.o
LOAD ./lwip/src/core/ip.o
LOAD ./lwip/src/core/mem.o
LOAD ./lwip/src/core/memp.o
LOAD ./lwip/src/core/netif.o
LOAD ./lwip/src/core/pbuf.o
LOAD ./lwip/src/core/raw.o
LOAD ./lwip/src/core/stats.o
LOAD ./lwip/src/core/sys.o
LOAD ./lwip/src/core/tcp.o
LOAD ./lwip/src/core/tcp_in.o
LOAD ./lwip/src/core/tcp_out.o
LOAD ./lwip/src/core/timeouts.o
LOAD ./lwip/src/core/udp.o
LOAD ./lwip/src/core/ipv4/autoip.o
LOAD ./lwip/src/core/ipv4/dhcp.o
LOAD ./lwip/src/core/ipv4/etharp.o
LOAD ./lwip/src/core/ipv4/icmp.o
LOAD ./lwip/src/core/ipv4/igmp.o
LOAD ./lwip/src/core/ipv4/ip4.o
LOAD ./lwip/src/core/ipv4/ip4_addr.o
LOAD ./lwip/src/core/ipv4/ip4_frag.o
LOAD ./lwip/src/netif/ethernet.o
LOAD ./lwip/src/netif/ppp/auth.o
LOAD ./lwip/src/netif/ppp/ccp.o
LOAD ./lwip/src/netif/ppp/chap-md5.o
LOAD ./lwip/src/netif/ppp/chap-new.o
LOAD ./lwip/src/netif/ppp/chap_ms.o
LOAD ./lwip/src/netif/ppp/demand.o
LOAD ./lwip/src/netif/ppp/eap.o
LOAD ./lwip/src/netif/ppp/ecp.o
LOAD ./lwip/src/netif/ppp/eui64.o
LOAD ./lwip/src/netif/ppp/fsm.o
LOAD ./lwip/src/netif/ppp/ipcp.o
LOAD ./lwip/src/netif/ppp/ipv6cp.o
LOAD ./lwip/src/netif/ppp/lcp.o
LOAD ./lwip/src/netif/ppp/magic.o
LOAD ./lwip/src/netif/ppp/mppe.o
LOAD ./lwip/src/netif/ppp/multilink.o
LOAD ./lwip/src/netif/ppp/ppp.o
LOAD ./lwip/src/netif/ppp/pppapi.o
LOAD ./lwip/src/netif/ppp/pppcrypt.o
LOAD ./lwip/src/netif/ppp/pppoe.o
LOAD ./lwip/src/netif/ppp/pppol2tp.o
LOAD ./lwip/src/netif/ppp/pppos.o
LOAD ./lwip/src/netif/ppp/upap.o
LOAD ./lwip/src/netif/ppp/utils.o
LOAD ./lwip/src/netif/ppp/vj.o
LOAD ./lwip/src/netif/ppp/polarssl/arc4.o
LOAD ./lwip/src/netif/ppp/polarssl/des.o
LOAD ./lwip/src/netif/ppp/polarssl/md4.o
LOAD ./lwip/src/netif/ppp/polarssl/md5.o
LOAD ./lwip/src/netif/ppp/polarssl/sha1.o
LOAD ./lwip/system/OS/sys_arch.o
                0x00000000                PROVIDE (_intvecs_base_address, 0x0)

.intvecs        0x00000000      0x208
 *(.intvecs)
 .intvecs       0x00000000      0x208 ./tm4c1294ncpdt_startup_ccs_gcc.o
                0x00000000                g_pfnVectors
                0x20000000                PROVIDE (_vtable_base_address, 0x20000000)

.vtable
 *(.vtable)

.text           0x00000240    0x21244
 CREATE_OBJECT_SYMBOLS
 *(.text)
 .text          0x00000240        0x0 c:/ti/ccs1011/ccs/tools/compiler/gcc-arm-none-eabi-7-2017-q4-major-win32/bin/../lib/gcc/arm-none-eabi/7.2.1/thumb/v7e-m/fpv4-sp/hard/crti.o
 .text          0x00000240       0x40 c:/ti/ccs1011/ccs/tools/compiler/gcc-arm-none-eabi-7-2017-q4-major-win32/bin/../lib/gcc/arm-none-eabi/7.2.1/thumb/v7e-m/fpv4-sp/hard/crtbegin.o
 .text          0x00000280       0x74 c:/ti/ccs1011/ccs/tools/compiler/gcc-arm-none-eabi-7-2017-q4-major-win32/bin/../lib/gcc/arm-none-eabi/7.2.1/../../../../arm-none-eabi/lib/thumb/v7e-m/fpv4-sp/hard/crt0.o
                0x00000280                _start
                0x00000280                _mainCRTStartup
 .text          0x000002f4        0x0 ./main.o
 .text          0x000002f4        0x0 ./tm4c1294ncpdt_startup_ccs_gcc.o
 .text          0x000002f4        0x0 ./Drivers/pinout.o
 .text          0x000002f4        0x0 ./FreeRTOS/CMSIS_RTOS/cmsis_os.o
 .text          0x000002f4        0x0 ./FreeRTOS/croutine.o
 .text          0x000002f4        0x0 ./FreeRTOS/event_groups.o
 .text          0x000002f4        0x0 ./FreeRTOS/list.o
 .text          0x000002f4        0x0 ./FreeRTOS/queue.o
 .text          0x000002f4        0x0 ./FreeRTOS/stream_buffer.o
 .text          0x000002f4        0x0 ./FreeRTOS/tasks.o
 .text          0x000002f4        0x0 ./FreeRTOS/timers.o
 .text          0x000002f4        0x0 ./FreeRTOS/portable/GCC/ARM_CM4F/port.o
 .text          0x000002f4        0x0 ./FreeRTOS/portable/MemMang/heap_4.o
 .text          0x000002f4        0x0 ./lwip/apps/httpserver_raw/fs.o
 .text          0x000002f4        0x0 ./lwip/apps/httpserver_raw/httpd.o
 .text          0x000002f4        0x0 ./lwip/lwiplib.o
 .text          0x000002f4        0x0 ./lwip/port/tiva-tm4c129.o
 .text          0x000002f4        0x0 ./lwip/src/api/api_lib.o
 .text          0x000002f4        0x0 ./lwip/src/api/api_msg.o
 .text          0x000002f4        0x0 ./lwip/src/api/err.o
 .text          0x000002f4        0x0 ./lwip/src/api/if_api.o
 .text          0x000002f4        0x0 ./lwip/src/api/netbuf.o
 .text          0x000002f4        0x0 ./lwip/src/api/netdb.o
 .text          0x000002f4        0x0 ./lwip/src/api/netifapi.o
 .text          0x000002f4        0x0 ./lwip/src/api/sockets.o
 .text          0x000002f4        0x0 ./lwip/src/api/tcpip.o
 .text          0x000002f4        0x0 ./lwip/src/core/altcp.o
 .text          0x000002f4        0x0 ./lwip/src/core/altcp_alloc.o
 .text          0x000002f4        0x0 ./lwip/src/core/altcp_tcp.o
 .text          0x000002f4        0x0 ./lwip/src/core/def.o
 .text          0x000002f4        0x0 ./lwip/src/core/dns.o
 .text          0x000002f4        0x0 ./lwip/src/core/inet_chksum.o
 .text          0x000002f4        0x0 ./lwip/src/core/init.o
 .text          0x000002f4        0x0 ./lwip/src/core/ip.o
 .text          0x000002f4        0x0 ./lwip/src/core/mem.o
 .text          0x000002f4        0x0 ./lwip/src/core/memp.o
 .text          0x000002f4        0x0 ./lwip/src/core/netif.o
 .text          0x000002f4        0x0 ./lwip/src/core/pbuf.o
 .text          0x000002f4        0x0 ./lwip/src/core/raw.o
 .text          0x000002f4        0x0 ./lwip/src/core/stats.o
 .text          0x000002f4        0x0 ./lwip/src/core/sys.o
 .text          0x000002f4        0x0 ./lwip/src/core/tcp.o
 .text          0x000002f4        0x0 ./lwip/src/core/tcp_in.o
 .text          0x000002f4        0x0 ./lwip/src/core/tcp_out.o
 .text          0x000002f4        0x0 ./lwip/src/core/timeouts.o
 .text          0x000002f4        0x0 ./lwip/src/core/udp.o
 .text          0x000002f4        0x0 ./lwip/src/core/ipv4/autoip.o
 .text          0x000002f4        0x0 ./lwip/src/core/ipv4/dhcp.o
 .text          0x000002f4        0x0 ./lwip/src/core/ipv4/etharp.o
 .text          0x000002f4        0x0 ./lwip/src/core/ipv4/icmp.o
 .text          0x000002f4        0x0 ./lwip/src/core/ipv4/igmp.o
 .text          0x000002f4        0x0 ./lwip/src/core/ipv4/ip4.o
 .text          0x000002f4        0x0 ./lwip/src/core/ipv4/ip4_addr.o
 .text          0x000002f4        0x0 ./lwip/src/core/ipv4/ip4_frag.o
 .text          0x000002f4        0x0 ./lwip/src/netif/ethernet.o
 .text          0x000002f4        0x0 ./lwip/src/netif/ppp/auth.o
 .text          0x000002f4        0x0 ./lwip/src/netif/ppp/ccp.o
 .text          0x000002f4        0x0 ./lwip/src/netif/ppp/chap-md5.o
 .text          0x000002f4        0x0 ./lwip/src/netif/ppp/chap-new.o
 .text          0x000002f4        0x0 ./lwip/src/netif/ppp/chap_ms.o
 .text          0x000002f4        0x0 ./lwip/src/netif/ppp/demand.o
 .text          0x000002f4        0x0 ./lwip/src/netif/ppp/eap.o
 .text          0x000002f4        0x0 ./lwip/src/netif/ppp/ecp.o
 .text          0x000002f4        0x0 ./lwip/src/netif/ppp/eui64.o
 .text          0x000002f4        0x0 ./lwip/src/netif/ppp/fsm.o
 .text          0x000002f4        0x0 ./lwip/src/netif/ppp/ipcp.o
 .text          0x000002f4        0x0 ./lwip/src/netif/ppp/ipv6cp.o
 .text          0x000002f4        0x0 ./lwip/src/netif/ppp/lcp.o
 .text          0x000002f4        0x0 ./lwip/src/netif/ppp/magic.o
 .text          0x000002f4        0x0 ./lwip/src/netif/ppp/mppe.o
 .text          0x000002f4        0x0 ./lwip/src/netif/ppp/multilink.o
 .text          0x000002f4        0x0 ./lwip/src/netif/ppp/ppp.o
 .text          0x000002f4        0x0 ./lwip/src/netif/ppp/pppapi.o
 .text          0x000002f4        0x0 ./lwip/src/netif/ppp/pppcrypt.o
 .text          0x000002f4        0x0 ./lwip/src/netif/ppp/pppoe.o
 .text          0x000002f4        0x0 ./lwip/src/netif/ppp/pppol2tp.o
 .text          0x000002f4        0x0 ./lwip/src/netif/ppp/pppos.o
 .text          0x000002f4        0x0 ./lwip/src/netif/ppp/upap.o
 .text          0x000002f4        0x0 ./lwip/src/netif/ppp/utils.o
 .text          0x000002f4        0x0 ./lwip/src/netif/ppp/vj.o
 .text          0x000002f4        0x0 ./lwip/src/netif/ppp/polarssl/arc4.o
 .text          0x000002f4        0x0 ./lwip/src/netif/ppp/polarssl/des.o
 .text          0x000002f4        0x0 ./lwip/src/netif/ppp/polarssl/md4.o
 .text          0x000002f4        0x0 ./lwip/src/netif/ppp/polarssl/md5.o
 .text          0x000002f4        0x0 ./lwip/src/netif/ppp/polarssl/sha1.o
 .text          0x000002f4        0x0 ./lwip/system/OS/sys_arch.o
 .text          0x000002f4        0x0 C:/ti/TivaWare_C_Series-2.2.0.295/driverlib/gcc/libdriver.a(emac.o)
 .text          0x000002f4        0x0 C:/ti/TivaWare_C_Series-2.2.0.295/driverlib/gcc/libdriver.a(gpio.o)
 .text          0x000002f4        0x0 C:/ti/TivaWare_C_Series-2.2.0.295/driverlib/gcc/libdriver.a(interrupt.o)
 .text          0x000002f4        0x0 C:/ti/TivaWare_C_Series-2.2.0.295/driverlib/gcc/libdriver.a(sw_crc.o)
 .text          0x000002f4        0x0 C:/ti/TivaWare_C_Series-2.2.0.295/driverlib/gcc/libdriver.a(sysctl.o)
 .text          0x000002f4        0x0 C:/ti/TivaWare_C_Series-2.2.0.295/driverlib/gcc/libdriver.a(cpu.o)
 .text          0x000002f4        0x0 c:/ti/ccs1011/ccs/tools/compiler/gcc-arm-none-eabi-7-2017-q4-major-win32/bin/../lib/gcc/arm-none-eabi/7.2.1/../../../../arm-none-eabi/lib/thumb/v7e-m/fpv4-sp/hard\libg.a(lib_a-atoi.o)
 .text          0x000002f4        0x0 c:/ti/ccs1011/ccs/tools/compiler/gcc-arm-none-eabi-7-2017-q4-major-win32/bin/../lib/gcc/arm-none-eabi/7.2.1/../../../../arm-none-eabi/lib/thumb/v7e-m/fpv4-sp/hard\libg.a(lib_a-exit.o)
 .text          0x000002f4        0x0 c:/ti/ccs1011/ccs/tools/compiler/gcc-arm-none-eabi-7-2017-q4-major-win32/bin/../lib/gcc/arm-none-eabi/7.2.1/../../../../arm-none-eabi/lib/thumb/v7e-m/fpv4-sp/hard\libg.a(lib_a-impure.o)
 .text          0x000002f4        0x0 c:/ti/ccs1011/ccs/tools/compiler/gcc-arm-none-eabi-7-2017-q4-major-win32/bin/../lib/gcc/arm-none-eabi/7.2.1/../../../../arm-none-eabi/lib/thumb/v7e-m/fpv4-sp/hard\libg.a(lib_a-init.o)
 .text          0x000002f4        0x0 c:/ti/ccs1011/ccs/tools/compiler/gcc-arm-none-eabi-7-2017-q4-major-win32/bin/../lib/gcc/arm-none-eabi/7.2.1/../../../../arm-none-eabi/lib/thumb/v7e-m/fpv4-sp/hard\libg.a(lib_a-locale.o)
 .text          0x000002f4        0x0 c:/ti/ccs1011/ccs/tools/compiler/gcc-arm-none-eabi-7-2017-q4-major-win32/bin/../lib/gcc/arm-none-eabi/7.2.1/../../../../arm-none-eabi/lib/thumb/v7e-m/fpv4-sp/hard\libg.a(lib_a-mbtowc_r.o)
 .text          0x000002f4        0x0 c:/ti/ccs1011/ccs/tools/compiler/gcc-arm-none-eabi-7-2017-q4-major-win32/bin/../lib/gcc/arm-none-eabi/7.2.1/../../../../arm-none-eabi/lib/thumb/v7e-m/fpv4-sp/hard\libg.a(lib_a-memcmp.o)
 .text          0x000002f4      0x134 c:/ti/ccs1011/ccs/tools/compiler/gcc-arm-none-eabi-7-2017-q4-major-win32/bin/../lib/gcc/arm-none-eabi/7.2.1/../../../../arm-none-eabi/lib/thumb/v7e-m/fpv4-sp/hard\libg.a(lib_a-memcpy.o)
                0x000002f4                memcpy
 .text          0x00000428        0x0 c:/ti/ccs1011/ccs/tools/compiler/gcc-arm-none-eabi-7-2017-q4-major-win32/bin/../lib/gcc/arm-none-eabi/7.2.1/../../../../arm-none-eabi/lib/thumb/v7e-m/fpv4-sp/hard\libg.a(lib_a-memmove.o)
 .text          0x00000428        0x0 c:/ti/ccs1011/ccs/tools/compiler/gcc-arm-none-eabi-7-2017-q4-major-win32/bin/../lib/gcc/arm-none-eabi/7.2.1/../../../../arm-none-eabi/lib/thumb/v7e-m/fpv4-sp/hard\libg.a(lib_a-memset.o)
 .text          0x00000428        0x0 c:/ti/ccs1011/ccs/tools/compiler/gcc-arm-none-eabi-7-2017-q4-major-win32/bin/../lib/gcc/arm-none-eabi/7.2.1/../../../../arm-none-eabi/lib/thumb/v7e-m/fpv4-sp/hard\libg.a(lib_a-printf.o)
 .text          0x00000428        0x0 c:/ti/ccs1011/ccs/tools/compiler/gcc-arm-none-eabi-7-2017-q4-major-win32/bin/../lib/gcc/arm-none-eabi/7.2.1/../../../../arm-none-eabi/lib/thumb/v7e-m/fpv4-sp/hard\libg.a(lib_a-rand.o)
 .text          0x00000428        0x0 c:/ti/ccs1011/ccs/tools/compiler/gcc-arm-none-eabi-7-2017-q4-major-win32/bin/../lib/gcc/arm-none-eabi/7.2.1/../../../../arm-none-eabi/lib/thumb/v7e-m/fpv4-sp/hard\libg.a(lib_a-reent.o)
 .text          0x00000428        0x0 c:/ti/ccs1011/ccs/tools/compiler/gcc-arm-none-eabi-7-2017-q4-major-win32/bin/../lib/gcc/arm-none-eabi/7.2.1/../../../../arm-none-eabi/lib/thumb/v7e-m/fpv4-sp/hard\libg.a(lib_a-sprintf.o)
 .text          0x00000428        0x0 c:/ti/ccs1011/ccs/tools/compiler/gcc-arm-none-eabi-7-2017-q4-major-win32/bin/../lib/gcc/arm-none-eabi/7.2.1/../../../../arm-none-eabi/lib/thumb/v7e-m/fpv4-sp/hard\libg.a(lib_a-strchr.o)
 *fill*         0x00000428       0x18 
 .text          0x00000440      0x2dc c:/ti/ccs1011/ccs/tools/compiler/gcc-arm-none-eabi-7-2017-q4-major-win32/bin/../lib/gcc/arm-none-eabi/7.2.1/../../../../arm-none-eabi/lib/thumb/v7e-m/fpv4-sp/hard\libg.a(lib_a-strcmp.o)
                0x00000448                strcmp
 *fill*         0x0000071c       0x24 
 .text          0x00000740       0xdc c:/ti/ccs1011/ccs/tools/compiler/gcc-arm-none-eabi-7-2017-q4-major-win32/bin/../lib/gcc/arm-none-eabi/7.2.1/../../../../arm-none-eabi/lib/thumb/v7e-m/fpv4-sp/hard\libg.a(lib_a-strlen.o)
                0x00000740                strlen
 .text          0x0000081c        0x0 c:/ti/ccs1011/ccs/tools/compiler/gcc-arm-none-eabi-7-2017-q4-major-win32/bin/../lib/gcc/arm-none-eabi/7.2.1/../../../../arm-none-eabi/lib/thumb/v7e-m/fpv4-sp/hard\libg.a(lib_a-strncmp.o)
 .text          0x0000081c        0x0 c:/ti/ccs1011/ccs/tools/compiler/gcc-arm-none-eabi-7-2017-q4-major-win32/bin/../lib/gcc/arm-none-eabi/7.2.1/../../../../arm-none-eabi/lib/thumb/v7e-m/fpv4-sp/hard\libg.a(lib_a-strncpy.o)
 .text          0x0000081c        0x0 c:/ti/ccs1011/ccs/tools/compiler/gcc-arm-none-eabi-7-2017-q4-major-win32/bin/../lib/gcc/arm-none-eabi/7.2.1/../../../../arm-none-eabi/lib/thumb/v7e-m/fpv4-sp/hard\libg.a(lib_a-strstr.o)
 .text          0x0000081c        0x0 c:/ti/ccs1011/ccs/tools/compiler/gcc-arm-none-eabi-7-2017-q4-major-win32/bin/../lib/gcc/arm-none-eabi/7.2.1/../../../../arm-none-eabi/lib/thumb/v7e-m/fpv4-sp/hard\libg.a(lib_a-strtol.o)
 .text          0x0000081c        0x0 c:/ti/ccs1011/ccs/tools/compiler/gcc-arm-none-eabi-7-2017-q4-major-win32/bin/../lib/gcc/arm-none-eabi/7.2.1/../../../../arm-none-eabi/lib/thumb/v7e-m/fpv4-sp/hard\libg.a(lib_a-svfprintf.o)
 .text          0x0000081c        0x0 c:/ti/ccs1011/ccs/tools/compiler/gcc-arm-none-eabi-7-2017-q4-major-win32/bin/../lib/gcc/arm-none-eabi/7.2.1/../../../../arm-none-eabi/lib/thumb/v7e-m/fpv4-sp/hard\libg.a(lib_a-vfprintf.o)
 .text          0x0000081c        0x0 c:/ti/ccs1011/ccs/tools/compiler/gcc-arm-none-eabi-7-2017-q4-major-win32/bin/../lib/gcc/arm-none-eabi/7.2.1/../../../../arm-none-eabi/lib/thumb/v7e-m/fpv4-sp/hard\libg.a(lib_a-wctomb_r.o)
 .text          0x0000081c        0x0 c:/ti/ccs1011/ccs/tools/compiler/gcc-arm-none-eabi-7-2017-q4-major-win32/bin/../lib/gcc/arm-none-eabi/7.2.1/../../../../arm-none-eabi/lib/thumb/v7e-m/fpv4-sp/hard\libg.a(lib_a-wsetup.o)
 .text          0x0000081c        0x0 c:/ti/ccs1011/ccs/tools/compiler/gcc-arm-none-eabi-7-2017-q4-major-win32/bin/../lib/gcc/arm-none-eabi/7.2.1/../../../../arm-none-eabi/lib/thumb/v7e-m/fpv4-sp/hard\libg.a(lib_a-__call_atexit.o)
 .text          0x0000081c        0x0 c:/ti/ccs1011/ccs/tools/compiler/gcc-arm-none-eabi-7-2017-q4-major-win32/bin/../lib/gcc/arm-none-eabi/7.2.1/../../../../arm-none-eabi/lib/thumb/v7e-m/fpv4-sp/hard\libg.a(lib_a-atexit.o)
 .text          0x0000081c        0x0 c:/ti/ccs1011/ccs/tools/compiler/gcc-arm-none-eabi-7-2017-q4-major-win32/bin/../lib/gcc/arm-none-eabi/7.2.1/../../../../arm-none-eabi/lib/thumb/v7e-m/fpv4-sp/hard\libg.a(lib_a-ctype_.o)
 .text          0x0000081c        0x0 c:/ti/ccs1011/ccs/tools/compiler/gcc-arm-none-eabi-7-2017-q4-major-win32/bin/../lib/gcc/arm-none-eabi/7.2.1/../../../../arm-none-eabi/lib/thumb/v7e-m/fpv4-sp/hard\libg.a(lib_a-dtoa.o)
 .text          0x0000081c        0x0 c:/ti/ccs1011/ccs/tools/compiler/gcc-arm-none-eabi-7-2017-q4-major-win32/bin/../lib/gcc/arm-none-eabi/7.2.1/../../../../arm-none-eabi/lib/thumb/v7e-m/fpv4-sp/hard\libg.a(lib_a-fflush.o)
 .text          0x0000081c        0x0 c:/ti/ccs1011/ccs/tools/compiler/gcc-arm-none-eabi-7-2017-q4-major-win32/bin/../lib/gcc/arm-none-eabi/7.2.1/../../../../arm-none-eabi/lib/thumb/v7e-m/fpv4-sp/hard\libg.a(lib_a-findfp.o)
 .text          0x0000081c        0x0 c:/ti/ccs1011/ccs/tools/compiler/gcc-arm-none-eabi-7-2017-q4-major-win32/bin/../lib/gcc/arm-none-eabi/7.2.1/../../../../arm-none-eabi/lib/thumb/v7e-m/fpv4-sp/hard\libg.a(lib_a-fini.o)
 .text          0x0000081c        0x0 c:/ti/ccs1011/ccs/tools/compiler/gcc-arm-none-eabi-7-2017-q4-major-win32/bin/../lib/gcc/arm-none-eabi/7.2.1/../../../../arm-none-eabi/lib/thumb/v7e-m/fpv4-sp/hard\libg.a(lib_a-freer.o)
 .text          0x0000081c        0x0 c:/ti/ccs1011/ccs/tools/compiler/gcc-arm-none-eabi-7-2017-q4-major-win32/bin/../lib/gcc/arm-none-eabi/7.2.1/../../../../arm-none-eabi/lib/thumb/v7e-m/fpv4-sp/hard\libg.a(lib_a-fwalk.o)
 .text          0x0000081c        0x0 c:/ti/ccs1011/ccs/tools/compiler/gcc-arm-none-eabi-7-2017-q4-major-win32/bin/../lib/gcc/arm-none-eabi/7.2.1/../../../../arm-none-eabi/lib/thumb/v7e-m/fpv4-sp/hard\libg.a(lib_a-localeconv.o)
 .text          0x0000081c        0x0 c:/ti/ccs1011/ccs/tools/compiler/gcc-arm-none-eabi-7-2017-q4-major-win32/bin/../lib/gcc/arm-none-eabi/7.2.1/../../../../arm-none-eabi/lib/thumb/v7e-m/fpv4-sp/hard\libg.a(lib_a-lock.o)
 .text          0x0000081c        0x0 c:/ti/ccs1011/ccs/tools/compiler/gcc-arm-none-eabi-7-2017-q4-major-win32/bin/../lib/gcc/arm-none-eabi/7.2.1/../../../../arm-none-eabi/lib/thumb/v7e-m/fpv4-sp/hard\libg.a(lib_a-makebuf.o)
 .text          0x0000081c        0x0 c:/ti/ccs1011/ccs/tools/compiler/gcc-arm-none-eabi-7-2017-q4-major-win32/bin/../lib/gcc/arm-none-eabi/7.2.1/../../../../arm-none-eabi/lib/thumb/v7e-m/fpv4-sp/hard\libg.a(lib_a-mallocr.o)
 *fill*         0x0000081c        0x4 
 .text          0x00000820       0xa0 c:/ti/ccs1011/ccs/tools/compiler/gcc-arm-none-eabi-7-2017-q4-major-win32/bin/../lib/gcc/arm-none-eabi/7.2.1/../../../../arm-none-eabi/lib/thumb/v7e-m/fpv4-sp/hard\libg.a(lib_a-memchr.o)
                0x00000820                memchr
 .text          0x000008c0        0x0 c:/ti/ccs1011/ccs/tools/compiler/gcc-arm-none-eabi-7-2017-q4-major-win32/bin/../lib/gcc/arm-none-eabi/7.2.1/../../../../arm-none-eabi/lib/thumb/v7e-m/fpv4-sp/hard\libg.a(lib_a-mlock.o)
 .text          0x000008c0        0x0 c:/ti/ccs1011/ccs/tools/compiler/gcc-arm-none-eabi-7-2017-q4-major-win32/bin/../lib/gcc/arm-none-eabi/7.2.1/../../../../arm-none-eabi/lib/thumb/v7e-m/fpv4-sp/hard\libg.a(lib_a-mprec.o)
 .text          0x000008c0        0x0 c:/ti/ccs1011/ccs/tools/compiler/gcc-arm-none-eabi-7-2017-q4-major-win32/bin/../lib/gcc/arm-none-eabi/7.2.1/../../../../arm-none-eabi/lib/thumb/v7e-m/fpv4-sp/hard\libg.a(lib_a-sbrkr.o)
 .text          0x000008c0        0x0 c:/ti/ccs1011/ccs/tools/compiler/gcc-arm-none-eabi-7-2017-q4-major-win32/bin/../lib/gcc/arm-none-eabi/7.2.1/../../../../arm-none-eabi/lib/thumb/v7e-m/fpv4-sp/hard\libg.a(lib_a-stdio.o)
 .text          0x000008c0        0x0 c:/ti/ccs1011/ccs/tools/compiler/gcc-arm-none-eabi-7-2017-q4-major-win32/bin/../lib/gcc/arm-none-eabi/7.2.1/../../../../arm-none-eabi/lib/thumb/v7e-m/fpv4-sp/hard\libg.a(lib_a-svfiprintf.o)
 .text          0x000008c0        0x0 c:/ti/ccs1011/ccs/tools/compiler/gcc-arm-none-eabi-7-2017-q4-major-win32/bin/../lib/gcc/arm-none-eabi/7.2.1/../../../../arm-none-eabi/lib/thumb/v7e-m/fpv4-sp/hard\libg.a(lib_a-vfiprintf.o)
 .text          0x000008c0        0x0 c:/ti/ccs1011/ccs/tools/compiler/gcc-arm-none-eabi-7-2017-q4-major-win32/bin/../lib/gcc/arm-none-eabi/7.2.1/../../../../arm-none-eabi/lib/thumb/v7e-m/fpv4-sp/hard\libg.a(lib_a-writer.o)
 .text          0x000008c0        0x0 c:/ti/ccs1011/ccs/tools/compiler/gcc-arm-none-eabi-7-2017-q4-major-win32/bin/../lib/gcc/arm-none-eabi/7.2.1/../../../../arm-none-eabi/lib/thumb/v7e-m/fpv4-sp/hard\libg.a(lib_a-__atexit.o)
 .text          0x000008c0        0x0 c:/ti/ccs1011/ccs/tools/compiler/gcc-arm-none-eabi-7-2017-q4-major-win32/bin/../lib/gcc/arm-none-eabi/7.2.1/../../../../arm-none-eabi/lib/thumb/v7e-m/fpv4-sp/hard\libg.a(lib_a-callocr.o)
 .text          0x000008c0        0x0 c:/ti/ccs1011/ccs/tools/compiler/gcc-arm-none-eabi-7-2017-q4-major-win32/bin/../lib/gcc/arm-none-eabi/7.2.1/../../../../arm-none-eabi/lib/thumb/v7e-m/fpv4-sp/hard\libg.a(lib_a-closer.o)
 .text          0x000008c0        0x0 c:/ti/ccs1011/ccs/tools/compiler/gcc-arm-none-eabi-7-2017-q4-major-win32/bin/../lib/gcc/arm-none-eabi/7.2.1/../../../../arm-none-eabi/lib/thumb/v7e-m/fpv4-sp/hard\libg.a(lib_a-fclose.o)
 .text          0x000008c0        0x0 c:/ti/ccs1011/ccs/tools/compiler/gcc-arm-none-eabi-7-2017-q4-major-win32/bin/../lib/gcc/arm-none-eabi/7.2.1/../../../../arm-none-eabi/lib/thumb/v7e-m/fpv4-sp/hard\libg.a(lib_a-fputwc.o)
 .text          0x000008c0        0x0 c:/ti/ccs1011/ccs/tools/compiler/gcc-arm-none-eabi-7-2017-q4-major-win32/bin/../lib/gcc/arm-none-eabi/7.2.1/../../../../arm-none-eabi/lib/thumb/v7e-m/fpv4-sp/hard\libg.a(lib_a-fstatr.o)
 .text          0x000008c0        0x0 c:/ti/ccs1011/ccs/tools/compiler/gcc-arm-none-eabi-7-2017-q4-major-win32/bin/../lib/gcc/arm-none-eabi/7.2.1/../../../../arm-none-eabi/lib/thumb/v7e-m/fpv4-sp/hard\libg.a(lib_a-fvwrite.o)
 .text          0x000008c0        0x0 c:/ti/ccs1011/ccs/tools/compiler/gcc-arm-none-eabi-7-2017-q4-major-win32/bin/../lib/gcc/arm-none-eabi/7.2.1/../../../../arm-none-eabi/lib/thumb/v7e-m/fpv4-sp/hard\libg.a(lib_a-isattyr.o)
 .text          0x000008c0        0x0 c:/ti/ccs1011/ccs/tools/compiler/gcc-arm-none-eabi-7-2017-q4-major-win32/bin/../lib/gcc/arm-none-eabi/7.2.1/../../../../arm-none-eabi/lib/thumb/v7e-m/fpv4-sp/hard\libg.a(lib_a-lseekr.o)
 .text          0x000008c0        0x0 c:/ti/ccs1011/ccs/tools/compiler/gcc-arm-none-eabi-7-2017-q4-major-win32/bin/../lib/gcc/arm-none-eabi/7.2.1/../../../../arm-none-eabi/lib/thumb/v7e-m/fpv4-sp/hard\libg.a(lib_a-readr.o)
 .text          0x000008c0        0x0 c:/ti/ccs1011/ccs/tools/compiler/gcc-arm-none-eabi-7-2017-q4-major-win32/bin/../lib/gcc/arm-none-eabi/7.2.1/../../../../arm-none-eabi/lib/thumb/v7e-m/fpv4-sp/hard\libg.a(lib_a-reallocr.o)
 .text          0x000008c0        0x0 c:/ti/ccs1011/ccs/tools/compiler/gcc-arm-none-eabi-7-2017-q4-major-win32/bin/../lib/gcc/arm-none-eabi/7.2.1/../../../../arm-none-eabi/lib/thumb/v7e-m/fpv4-sp/hard\libg.a(lib_a-wbuf.o)
 .text          0x000008c0        0x0 c:/ti/ccs1011/ccs/tools/compiler/gcc-arm-none-eabi-7-2017-q4-major-win32/bin/../lib/gcc/arm-none-eabi/7.2.1/../../../../arm-none-eabi/lib/thumb/v7e-m/fpv4-sp/hard\libg.a(lib_a-wcrtomb.o)
 .text          0x000008c0      0x378 c:/ti/ccs1011/ccs/tools/compiler/gcc-arm-none-eabi-7-2017-q4-major-win32/bin/../lib/gcc/arm-none-eabi/7.2.1/thumb/v7e-m/fpv4-sp/hard\libgcc.a(_arm_addsubdf3.o)
                0x000008c0                __aeabi_drsub
                0x000008c8                __aeabi_dsub
                0x000008c8                __subdf3
                0x000008cc                __aeabi_dadd
                0x000008cc                __adddf3
                0x00000b44                __floatunsidf
                0x00000b44                __aeabi_ui2d
                0x00000b64                __floatsidf
                0x00000b64                __aeabi_i2d
                0x00000b88                __aeabi_f2d
                0x00000b88                __extendsfdf2
                0x00000bcc                __floatundidf
                0x00000bcc                __aeabi_ul2d
                0x00000bdc                __floatdidf
                0x00000bdc                __aeabi_l2d
 .text          0x00000c38      0x424 c:/ti/ccs1011/ccs/tools/compiler/gcc-arm-none-eabi-7-2017-q4-major-win32/bin/../lib/gcc/arm-none-eabi/7.2.1/thumb/v7e-m/fpv4-sp/hard\libgcc.a(_arm_muldivdf3.o)
                0x00000c38                __aeabi_dmul
                0x00000c38                __muldf3
                0x00000e8c                __divdf3
                0x00000e8c                __aeabi_ddiv
 .text          0x0000105c      0x110 c:/ti/ccs1011/ccs/tools/compiler/gcc-arm-none-eabi-7-2017-q4-major-win32/bin/../lib/gcc/arm-none-eabi/7.2.1/thumb/v7e-m/fpv4-sp/hard\libgcc.a(_arm_cmpdf2.o)
                0x0000105c                __gtdf2
                0x0000105c                __gedf2
                0x00001064                __ltdf2
                0x00001064                __ledf2
                0x0000106c                __nedf2
                0x0000106c                __eqdf2
                0x0000106c                __cmpdf2
                0x000010e8                __aeabi_cdrcmple
                0x000010f8                __aeabi_cdcmpeq
                0x000010f8                __aeabi_cdcmple
                0x00001108                __aeabi_dcmpeq
                0x0000111c                __aeabi_dcmplt
                0x00001130                __aeabi_dcmple
                0x00001144                __aeabi_dcmpge
                0x00001158                __aeabi_dcmpgt
 .text          0x0000116c       0x2c c:/ti/ccs1011/ccs/tools/compiler/gcc-arm-none-eabi-7-2017-q4-major-win32/bin/../lib/gcc/arm-none-eabi/7.2.1/thumb/v7e-m/fpv4-sp/hard\libgcc.a(_arm_unorddf2.o)
                0x0000116c                __unorddf2
                0x0000116c                __aeabi_dcmpun
 .text          0x00001198       0x50 c:/ti/ccs1011/ccs/tools/compiler/gcc-arm-none-eabi-7-2017-q4-major-win32/bin/../lib/gcc/arm-none-eabi/7.2.1/thumb/v7e-m/fpv4-sp/hard\libgcc.a(_arm_fixdfsi.o)
                0x00001198                __aeabi_d2iz
                0x00001198                __fixdfsi
 .text          0x000011e8       0x30 c:/ti/ccs1011/ccs/tools/compiler/gcc-arm-none-eabi-7-2017-q4-major-win32/bin/../lib/gcc/arm-none-eabi/7.2.1/thumb/v7e-m/fpv4-sp/hard\libgcc.a(_aeabi_uldivmod.o)
                0x000011e8                __aeabi_uldivmod
 .text          0x00001218      0x2cc c:/ti/ccs1011/ccs/tools/compiler/gcc-arm-none-eabi-7-2017-q4-major-win32/bin/../lib/gcc/arm-none-eabi/7.2.1/thumb/v7e-m/fpv4-sp/hard\libgcc.a(_udivmoddi4.o)
                0x00001218                __udivmoddi4
 .text          0x000014e4        0x4 c:/ti/ccs1011/ccs/tools/compiler/gcc-arm-none-eabi-7-2017-q4-major-win32/bin/../lib/gcc/arm-none-eabi/7.2.1/thumb/v7e-m/fpv4-sp/hard\libgcc.a(_dvmd_tls.o)
                0x000014e4                __aeabi_idiv0
                0x000014e4                __aeabi_ldiv0
 .text          0x000014e8        0x0 c:/ti/ccs1011/ccs/tools/compiler/gcc-arm-none-eabi-7-2017-q4-major-win32/bin/../lib/gcc/arm-none-eabi/7.2.1/../../../../arm-none-eabi/lib/thumb/v7e-m/fpv4-sp/hard\libnosys.a(close.o)
 .text          0x000014e8        0x0 c:/ti/ccs1011/ccs/tools/compiler/gcc-arm-none-eabi-7-2017-q4-major-win32/bin/../lib/gcc/arm-none-eabi/7.2.1/../../../../arm-none-eabi/lib/thumb/v7e-m/fpv4-sp/hard\libnosys.a(fstat.o)
 .text          0x000014e8        0x0 c:/ti/ccs1011/ccs/tools/compiler/gcc-arm-none-eabi-7-2017-q4-major-win32/bin/../lib/gcc/arm-none-eabi/7.2.1/../../../../arm-none-eabi/lib/thumb/v7e-m/fpv4-sp/hard\libnosys.a(isatty.o)
 .text          0x000014e8        0x0 c:/ti/ccs1011/ccs/tools/compiler/gcc-arm-none-eabi-7-2017-q4-major-win32/bin/../lib/gcc/arm-none-eabi/7.2.1/../../../../arm-none-eabi/lib/thumb/v7e-m/fpv4-sp/hard\libnosys.a(lseek.o)
 .text          0x000014e8        0x0 c:/ti/ccs1011/ccs/tools/compiler/gcc-arm-none-eabi-7-2017-q4-major-win32/bin/../lib/gcc/arm-none-eabi/7.2.1/../../../../arm-none-eabi/lib/thumb/v7e-m/fpv4-sp/hard\libnosys.a(read.o)
 .text          0x000014e8        0x0 c:/ti/ccs1011/ccs/tools/compiler/gcc-arm-none-eabi-7-2017-q4-major-win32/bin/../lib/gcc/arm-none-eabi/7.2.1/../../../../arm-none-eabi/lib/thumb/v7e-m/fpv4-sp/hard\libnosys.a(sbrk.o)
 .text          0x000014e8        0x0 c:/ti/ccs1011/ccs/tools/compiler/gcc-arm-none-eabi-7-2017-q4-major-win32/bin/../lib/gcc/arm-none-eabi/7.2.1/../../../../arm-none-eabi/lib/thumb/v7e-m/fpv4-sp/hard\libnosys.a(write.o)
 .text          0x000014e8        0x0 c:/ti/ccs1011/ccs/tools/compiler/gcc-arm-none-eabi-7-2017-q4-major-win32/bin/../lib/gcc/arm-none-eabi/7.2.1/../../../../arm-none-eabi/lib/thumb/v7e-m/fpv4-sp/hard\libnosys.a(_exit.o)
 .text          0x000014e8        0x0 c:/ti/ccs1011/ccs/tools/compiler/gcc-arm-none-eabi-7-2017-q4-major-win32/bin/../lib/gcc/arm-none-eabi/7.2.1/thumb/v7e-m/fpv4-sp/hard/crtend.o
 .text          0x000014e8        0x0 c:/ti/ccs1011/ccs/tools/compiler/gcc-arm-none-eabi-7-2017-q4-major-win32/bin/../lib/gcc/arm-none-eabi/7.2.1/thumb/v7e-m/fpv4-sp/hard/crtn.o
 *(.text.*)
 .text.UpLwIP   0x000014e8       0xb8 ./main.o
                0x000014e8                UpLwIP
 .text.task1    0x000015a0       0x50 ./main.o
                0x000015a0                task1
 .text.task2    0x000015f0       0x54 ./main.o
                0x000015f0                task2
 .text.DisplayIPAddress
                0x00001644       0x2c ./main.o
                0x00001644                DisplayIPAddress
 .text.lwIPHostTimerHandler
                0x00001670       0x44 ./main.o
                0x00001670                lwIPHostTimerHandler
 .text.main     0x000016b4       0x9c ./main.o
                0x000016b4                main
 .text.NmiSR    0x00001750        0x2 ./tm4c1294ncpdt_startup_ccs_gcc.o
 .text.FaultISR
                0x00001752        0x2 ./tm4c1294ncpdt_startup_ccs_gcc.o
 .text.IntDefaultHandler
                0x00001754        0x2 ./tm4c1294ncpdt_startup_ccs_gcc.o
 *fill*         0x00001756        0x2 
 .text.ResetISR
                0x00001758       0x50 ./tm4c1294ncpdt_startup_ccs_gcc.o
                0x00001758                ResetISR
 .text.PinoutSet
                0x000017a8      0x1a0 ./Drivers/pinout.o
                0x000017a8                PinoutSet
 .text.LEDWrite
                0x00001948       0x98 ./Drivers/pinout.o
                0x00001948                LEDWrite
 .text.LEDRead  0x000019e0       0x5c ./Drivers/pinout.o
                0x000019e0                LEDRead
 .text.makeFreeRtosPriority
                0x00001a3c        0xc ./FreeRTOS/CMSIS_RTOS/cmsis_os.o
 .text.makeCmsisPriority
                0x00001a48        0xe ./FreeRTOS/CMSIS_RTOS/cmsis_os.o
 .text.inHandlerMode
                0x00001a56        0xc ./FreeRTOS/CMSIS_RTOS/cmsis_os.o
 .text.osKernelStart
                0x00001a62        0xa ./FreeRTOS/CMSIS_RTOS/cmsis_os.o
                0x00001a62                osKernelStart
 .text.osKernelRunning
                0x00001a6c       0x12 ./FreeRTOS/CMSIS_RTOS/cmsis_os.o
                0x00001a6c                osKernelRunning
 .text.osKernelSysTick
                0x00001a7e       0x14 ./FreeRTOS/CMSIS_RTOS/cmsis_os.o
                0x00001a7e                osKernelSysTick
 .text.osThreadCreate
                0x00001a92       0x34 ./FreeRTOS/CMSIS_RTOS/cmsis_os.o
                0x00001a92                osThreadCreate
 .text.osThreadGetId
                0x00001ac6        0x8 ./FreeRTOS/CMSIS_RTOS/cmsis_os.o
                0x00001ac6                osThreadGetId
 .text.osThreadTerminate
                0x00001ace        0xa ./FreeRTOS/CMSIS_RTOS/cmsis_os.o
                0x00001ace                osThreadTerminate
 .text.osThreadYield
                0x00001ad8       0x18 ./FreeRTOS/CMSIS_RTOS/cmsis_os.o
                0x00001ad8                osThreadYield
 .text.osThreadSetPriority
                0x00001af0       0x16 ./FreeRTOS/CMSIS_RTOS/cmsis_os.o
                0x00001af0                osThreadSetPriority
 .text.osThreadGetPriority
                0x00001b06       0x22 ./FreeRTOS/CMSIS_RTOS/cmsis_os.o
                0x00001b06                osThreadGetPriority
 .text.osDelay  0x00001b28       0x12 ./FreeRTOS/CMSIS_RTOS/cmsis_os.o
                0x00001b28                osDelay
 *fill*         0x00001b3a        0x2 
 .text.osTimerCreate
                0x00001b3c       0x28 ./FreeRTOS/CMSIS_RTOS/cmsis_os.o
                0x00001b3c                osTimerCreate
 .text.osTimerStart
                0x00001b64       0x6c ./FreeRTOS/CMSIS_RTOS/cmsis_os.o
                0x00001b64                osTimerStart
 .text.osTimerStop
                0x00001bd0       0x64 ./FreeRTOS/CMSIS_RTOS/cmsis_os.o
                0x00001bd0                osTimerStop
 .text.osTimerDelete
                0x00001c34       0x30 ./FreeRTOS/CMSIS_RTOS/cmsis_os.o
                0x00001c34                osTimerDelete
 .text.osSignalSet
                0x00001c64       0x6c ./FreeRTOS/CMSIS_RTOS/cmsis_os.o
                0x00001c64                osSignalSet
 .text.osSignalWait
                0x00001cd0       0x6a ./FreeRTOS/CMSIS_RTOS/cmsis_os.o
                0x00001cd0                osSignalWait
 .text.osMutexCreate
                0x00001d3a        0xa ./FreeRTOS/CMSIS_RTOS/cmsis_os.o
                0x00001d3a                osMutexCreate
 .text.osMutexWait
                0x00001d44       0x70 ./FreeRTOS/CMSIS_RTOS/cmsis_os.o
                0x00001d44                osMutexWait
 .text.osMutexRelease
                0x00001db4       0x5c ./FreeRTOS/CMSIS_RTOS/cmsis_os.o
                0x00001db4                osMutexRelease
 .text.osMutexDelete
                0x00001e10       0x18 ./FreeRTOS/CMSIS_RTOS/cmsis_os.o
                0x00001e10                osMutexDelete
 .text.osSemaphoreCreate
                0x00001e28       0x2c ./FreeRTOS/CMSIS_RTOS/cmsis_os.o
                0x00001e28                osSemaphoreCreate
 .text.osSemaphoreWait
                0x00001e54       0x70 ./FreeRTOS/CMSIS_RTOS/cmsis_os.o
                0x00001e54                osSemaphoreWait
 .text.osSemaphoreRelease
                0x00001ec4       0x5c ./FreeRTOS/CMSIS_RTOS/cmsis_os.o
                0x00001ec4                osSemaphoreRelease
 .text.osSemaphoreDelete
                0x00001f20       0x18 ./FreeRTOS/CMSIS_RTOS/cmsis_os.o
                0x00001f20                osSemaphoreDelete
 .text.osPoolCreate
                0x00001f38       0x68 ./FreeRTOS/CMSIS_RTOS/cmsis_os.o
                0x00001f38                osPoolCreate
 .text.osPoolAlloc
                0x00001fa0       0x6c ./FreeRTOS/CMSIS_RTOS/cmsis_os.o
                0x00001fa0                osPoolAlloc
 .text.osPoolCAlloc
                0x0000200c       0x12 ./FreeRTOS/CMSIS_RTOS/cmsis_os.o
                0x0000200c                osPoolCAlloc
 .text.osPoolFree
                0x0000201e       0x40 ./FreeRTOS/CMSIS_RTOS/cmsis_os.o
                0x0000201e                osPoolFree
 .text.osMessageCreate
                0x0000205e        0xe ./FreeRTOS/CMSIS_RTOS/cmsis_os.o
                0x0000205e                osMessageCreate
 .text.osMessagePut
                0x0000206c       0x68 ./FreeRTOS/CMSIS_RTOS/cmsis_os.o
                0x0000206c                osMessagePut
 .text.osMessageGet
                0x000020d4       0xa0 ./FreeRTOS/CMSIS_RTOS/cmsis_os.o
                0x000020d4                osMessageGet
 .text.osMailCreate
                0x00002174       0x66 ./FreeRTOS/CMSIS_RTOS/cmsis_os.o
                0x00002174                osMailCreate
 .text.osMailAlloc
                0x000021da       0x10 ./FreeRTOS/CMSIS_RTOS/cmsis_os.o
                0x000021da                osMailAlloc
 .text.osMailCAlloc
                0x000021ea       0x22 ./FreeRTOS/CMSIS_RTOS/cmsis_os.o
                0x000021ea                osMailCAlloc
 .text.osMailPut
                0x0000220c       0x68 ./FreeRTOS/CMSIS_RTOS/cmsis_os.o
                0x0000220c                osMailPut
 .text.osMailGet
                0x00002274       0x9c ./FreeRTOS/CMSIS_RTOS/cmsis_os.o
                0x00002274                osMailGet
 .text.osMailFree
                0x00002310       0x10 ./FreeRTOS/CMSIS_RTOS/cmsis_os.o
                0x00002310                osMailFree
 .text.osSystickHandler
                0x00002320        0x8 ./FreeRTOS/CMSIS_RTOS/cmsis_os.o
                0x00002320                osSystickHandler
 .text.osThreadSuspend
                0x00002328        0xa ./FreeRTOS/CMSIS_RTOS/cmsis_os.o
                0x00002328                osThreadSuspend
 *fill*         0x00002332        0x2 
 .text.osThreadResume
                0x00002334       0x34 ./FreeRTOS/CMSIS_RTOS/cmsis_os.o
                0x00002334                osThreadResume
 .text.osThreadSuspendAll
                0x00002368        0xa ./FreeRTOS/CMSIS_RTOS/cmsis_os.o
                0x00002368                osThreadSuspendAll
 .text.osThreadResumeAll
                0x00002372       0x12 ./FreeRTOS/CMSIS_RTOS/cmsis_os.o
                0x00002372                osThreadResumeAll
 .text.osDelayUntil
                0x00002384       0x12 ./FreeRTOS/CMSIS_RTOS/cmsis_os.o
                0x00002384                osDelayUntil
 .text.osAbortDelay
                0x00002396        0x4 ./FreeRTOS/CMSIS_RTOS/cmsis_os.o
                0x00002396                osAbortDelay
 .text.osThreadList
                0x0000239a        0x4 ./FreeRTOS/CMSIS_RTOS/cmsis_os.o
                0x0000239a                osThreadList
 .text.osMessagePeek
                0x0000239e       0x58 ./FreeRTOS/CMSIS_RTOS/cmsis_os.o
                0x0000239e                osMessagePeek
 .text.osMessageWaiting
                0x000023f6       0x1a ./FreeRTOS/CMSIS_RTOS/cmsis_os.o
                0x000023f6                osMessageWaiting
 .text.osMessageAvailableSpace
                0x00002410        0x8 ./FreeRTOS/CMSIS_RTOS/cmsis_os.o
                0x00002410                osMessageAvailableSpace
 .text.osMessageDelete
                0x00002418       0x18 ./FreeRTOS/CMSIS_RTOS/cmsis_os.o
                0x00002418                osMessageDelete
 .text.osRecursiveMutexCreate
                0x00002430        0xa ./FreeRTOS/CMSIS_RTOS/cmsis_os.o
                0x00002430                osRecursiveMutexCreate
 .text.osRecursiveMutexRelease
                0x0000243a       0x12 ./FreeRTOS/CMSIS_RTOS/cmsis_os.o
                0x0000243a                osRecursiveMutexRelease
 .text.osRecursiveMutexWait
                0x0000244c       0x28 ./FreeRTOS/CMSIS_RTOS/cmsis_os.o
                0x0000244c                osRecursiveMutexWait
 .text.osSemaphoreGetCount
                0x00002474        0x8 ./FreeRTOS/CMSIS_RTOS/cmsis_os.o
                0x00002474                osSemaphoreGetCount
 .text.prvTestWaitCondition
                0x0000247c       0x1c ./FreeRTOS/event_groups.o
 .text.xEventGroupCreate
                0x00002498       0x1a ./FreeRTOS/event_groups.o
                0x00002498                xEventGroupCreate
 *fill*         0x000024b2        0x2 
 .text.xEventGroupWaitBits
                0x000024b4      0x10c ./FreeRTOS/event_groups.o
                0x000024b4                xEventGroupWaitBits
 .text.xEventGroupClearBits
                0x000025c0       0x46 ./FreeRTOS/event_groups.o
                0x000025c0                xEventGroupClearBits
 .text.xEventGroupGetBitsFromISR
                0x00002606       0x1c ./FreeRTOS/event_groups.o
                0x00002606                xEventGroupGetBitsFromISR
 .text.xEventGroupSetBits
                0x00002622       0x8c ./FreeRTOS/event_groups.o
                0x00002622                xEventGroupSetBits
 *fill*         0x000026ae        0x2 
 .text.xEventGroupSync
                0x000026b0       0xd4 ./FreeRTOS/event_groups.o
                0x000026b0                xEventGroupSync
 .text.vEventGroupDelete
                0x00002784       0x3e ./FreeRTOS/event_groups.o
                0x00002784                vEventGroupDelete
 .text.vEventGroupSetBitsCallback
                0x000027c2        0x8 ./FreeRTOS/event_groups.o
                0x000027c2                vEventGroupSetBitsCallback
 .text.vEventGroupClearBitsCallback
                0x000027ca        0x8 ./FreeRTOS/event_groups.o
                0x000027ca                vEventGroupClearBitsCallback
 .text.vListInitialise
                0x000027d2       0x16 ./FreeRTOS/list.o
                0x000027d2                vListInitialise
 .text.vListInitialiseItem
                0x000027e8        0x6 ./FreeRTOS/list.o
                0x000027e8                vListInitialiseItem
 .text.vListInsertEnd
                0x000027ee       0x18 ./FreeRTOS/list.o
                0x000027ee                vListInsertEnd
 .text.vListInsert
                0x00002806       0x34 ./FreeRTOS/list.o
                0x00002806                vListInsert
 .text.uxListRemove
                0x0000283a       0x28 ./FreeRTOS/list.o
                0x0000283a                uxListRemove
 .text.prvGetDisinheritPriorityAfterTimeout
                0x00002862       0x12 ./FreeRTOS/queue.o
 .text.prvIsQueueFull
                0x00002874       0x1e ./FreeRTOS/queue.o
 .text.prvIsQueueEmpty
                0x00002892       0x1a ./FreeRTOS/queue.o
 .text.prvCopyDataToQueue
                0x000028ac       0x76 ./FreeRTOS/queue.o
 .text.prvCopyDataFromQueue
                0x00002922       0x24 ./FreeRTOS/queue.o
 .text.prvUnlockQueue
                0x00002946       0x6e ./FreeRTOS/queue.o
 .text.xQueueGenericReset
                0x000029b4       0x84 ./FreeRTOS/queue.o
                0x000029b4                xQueueGenericReset
 .text.prvInitialiseNewQueue
                0x00002a38       0x1c ./FreeRTOS/queue.o
 .text.xQueueGenericCreate
                0x00002a54       0x5e ./FreeRTOS/queue.o
                0x00002a54                xQueueGenericCreate
 .text.xQueueCreateCountingSemaphore
                0x00002ab2       0x40 ./FreeRTOS/queue.o
                0x00002ab2                xQueueCreateCountingSemaphore
 *fill*         0x00002af2        0x2 
 .text.xQueueGenericSend
                0x00002af4      0x17c ./FreeRTOS/queue.o
                0x00002af4                xQueueGenericSend
 .text.prvInitialiseMutex
                0x00002c70       0x18 ./FreeRTOS/queue.o
 .text.xQueueCreateMutex
                0x00002c88       0x16 ./FreeRTOS/queue.o
                0x00002c88                xQueueCreateMutex
 .text.xQueueGiveMutexRecursive
                0x00002c9e       0x40 ./FreeRTOS/queue.o
                0x00002c9e                xQueueGiveMutexRecursive
 .text.xQueueGenericSendFromISR
                0x00002cde       0xe4 ./FreeRTOS/queue.o
                0x00002cde                xQueueGenericSendFromISR
 .text.xQueueGiveFromISR
                0x00002dc2       0xc8 ./FreeRTOS/queue.o
                0x00002dc2                xQueueGiveFromISR
 *fill*         0x00002e8a        0x2 
 .text.xQueueReceive
                0x00002e8c      0x158 ./FreeRTOS/queue.o
                0x00002e8c                xQueueReceive
 .text.xQueueSemaphoreTake
                0x00002fe4      0x19c ./FreeRTOS/queue.o
                0x00002fe4                xQueueSemaphoreTake
 .text.xQueueTakeMutexRecursive
                0x00003180       0x44 ./FreeRTOS/queue.o
                0x00003180                xQueueTakeMutexRecursive
 .text.xQueuePeek
                0x000031c4      0x158 ./FreeRTOS/queue.o
                0x000031c4                xQueuePeek
 .text.xQueueReceiveFromISR
                0x0000331c       0xc0 ./FreeRTOS/queue.o
                0x0000331c                xQueueReceiveFromISR
 .text.xQueuePeekFromISR
                0x000033dc       0x7c ./FreeRTOS/queue.o
                0x000033dc                xQueuePeekFromISR
 .text.uxQueueMessagesWaiting
                0x00003458       0x26 ./FreeRTOS/queue.o
                0x00003458                uxQueueMessagesWaiting
 .text.uxQueueSpacesAvailable
                0x0000347e       0x2a ./FreeRTOS/queue.o
                0x0000347e                uxQueueSpacesAvailable
 .text.uxQueueMessagesWaitingFromISR
                0x000034a8       0x18 ./FreeRTOS/queue.o
                0x000034a8                uxQueueMessagesWaitingFromISR
 .text.xQueueIsQueueEmptyFromISR
                0x000034c0       0x20 ./FreeRTOS/queue.o
                0x000034c0                xQueueIsQueueEmptyFromISR
 .text.xQueueIsQueueFullFromISR
                0x000034e0       0x24 ./FreeRTOS/queue.o
                0x000034e0                xQueueIsQueueFullFromISR
 .text.vQueueAddToRegistry
                0x00003504       0x28 ./FreeRTOS/queue.o
                0x00003504                vQueueAddToRegistry
 .text.pcQueueGetName
                0x0000352c       0x28 ./FreeRTOS/queue.o
                0x0000352c                pcQueueGetName
 .text.vQueueUnregisterQueue
                0x00003554       0x2c ./FreeRTOS/queue.o
                0x00003554                vQueueUnregisterQueue
 .text.vQueueDelete
                0x00003580       0x24 ./FreeRTOS/queue.o
                0x00003580                vQueueDelete
 .text.vQueueWaitForMessageRestricted
                0x000035a4       0x52 ./FreeRTOS/queue.o
                0x000035a4                vQueueWaitForMessageRestricted
 .text.prvBytesInBuffer
                0x000035f6       0x12 ./FreeRTOS/stream_buffer.o
 .text.prvInitialiseNewStreamBuffer
                0x00003608       0x40 ./FreeRTOS/stream_buffer.o
 .text.prvWriteBytesToBuffer
                0x00003648       0x8c ./FreeRTOS/stream_buffer.o
 .text.prvWriteMessageToBuffer
                0x000036d4       0x48 ./FreeRTOS/stream_buffer.o
 .text.prvReadBytesFromBuffer
                0x0000371c       0x96 ./FreeRTOS/stream_buffer.o
 .text.prvReadMessageFromBuffer
                0x000037b2       0x44 ./FreeRTOS/stream_buffer.o
 .text.xStreamBufferGenericCreate
                0x000037f6       0x74 ./FreeRTOS/stream_buffer.o
                0x000037f6                xStreamBufferGenericCreate
 .text.vStreamBufferDelete
                0x0000386a       0x2e ./FreeRTOS/stream_buffer.o
                0x0000386a                vStreamBufferDelete
 .text.xStreamBufferReset
                0x00003898       0x4a ./FreeRTOS/stream_buffer.o
                0x00003898                xStreamBufferReset
 .text.xStreamBufferSetTriggerLevel
                0x000038e2       0x2a ./FreeRTOS/stream_buffer.o
                0x000038e2                xStreamBufferSetTriggerLevel
 .text.xStreamBufferSpacesAvailable
                0x0000390c       0x2a ./FreeRTOS/stream_buffer.o
                0x0000390c                xStreamBufferSpacesAvailable
 .text.xStreamBufferBytesAvailable
                0x00003936       0x1c ./FreeRTOS/stream_buffer.o
                0x00003936                xStreamBufferBytesAvailable
 .text.xStreamBufferSend
                0x00003952      0x138 ./FreeRTOS/stream_buffer.o
                0x00003952                xStreamBufferSend
 .text.xStreamBufferSendFromISR
                0x00003a8a       0xa2 ./FreeRTOS/stream_buffer.o
                0x00003a8a                xStreamBufferSendFromISR
 .text.xStreamBufferReceive
                0x00003b2c       0xe6 ./FreeRTOS/stream_buffer.o
                0x00003b2c                xStreamBufferReceive
 .text.xStreamBufferNextMessageLengthBytes
                0x00003c12       0x5a ./FreeRTOS/stream_buffer.o
                0x00003c12                xStreamBufferNextMessageLengthBytes
 .text.xStreamBufferReceiveFromISR
                0x00003c6c       0x9c ./FreeRTOS/stream_buffer.o
                0x00003c6c                xStreamBufferReceiveFromISR
 .text.xStreamBufferIsEmpty
                0x00003d08       0x24 ./FreeRTOS/stream_buffer.o
                0x00003d08                xStreamBufferIsEmpty
 .text.xStreamBufferIsFull
                0x00003d2c       0x38 ./FreeRTOS/stream_buffer.o
                0x00003d2c                xStreamBufferIsFull
 .text.xStreamBufferSendCompletedFromISR
                0x00003d64       0x54 ./FreeRTOS/stream_buffer.o
                0x00003d64                xStreamBufferSendCompletedFromISR
 .text.xStreamBufferReceiveCompletedFromISR
                0x00003db8       0x54 ./FreeRTOS/stream_buffer.o
                0x00003db8                xStreamBufferReceiveCompletedFromISR
 .text.prvTaskIsTaskSuspended
                0x00003e0c       0x40 ./FreeRTOS/tasks.o
 .text.prvResetNextTaskUnblockTime
                0x00003e4c       0x28 ./FreeRTOS/tasks.o
 .text.prvDeleteTCB
                0x00003e74       0x12 ./FreeRTOS/tasks.o
 .text.prvInitialiseNewTask
                0x00003e86       0x8c ./FreeRTOS/tasks.o
 *fill*         0x00003f12        0x2 
 .text.prvInitialiseTaskLists
                0x00003f14       0x68 ./FreeRTOS/tasks.o
 .text.prvAddNewTaskToReadyList
                0x00003f7c       0xa8 ./FreeRTOS/tasks.o
 .text.prvCheckTasksWaitingTermination
                0x00004024       0x4c ./FreeRTOS/tasks.o
 .text.prvIdleTask
                0x00004070       0x28 ./FreeRTOS/tasks.o
 .text.prvAddCurrentTaskToDelayedList
                0x00004098       0x98 ./FreeRTOS/tasks.o
 .text.xTaskCreate
                0x00004130       0x62 ./FreeRTOS/tasks.o
                0x00004130                xTaskCreate
 *fill*         0x00004192        0x2 
 .text.vTaskDelete
                0x00004194       0xe0 ./FreeRTOS/tasks.o
                0x00004194                vTaskDelete
 .text.uxTaskPriorityGet
                0x00004274       0x20 ./FreeRTOS/tasks.o
                0x00004274                uxTaskPriorityGet
 .text.uxTaskPriorityGetFromISR
                0x00004294       0x30 ./FreeRTOS/tasks.o
                0x00004294                uxTaskPriorityGetFromISR
 .text.vTaskPrioritySet
                0x000042c4       0xdc ./FreeRTOS/tasks.o
                0x000042c4                vTaskPrioritySet
 .text.vTaskResume
                0x000043a0       0x84 ./FreeRTOS/tasks.o
                0x000043a0                vTaskResume
 .text.xTaskResumeFromISR
                0x00004424       0xa4 ./FreeRTOS/tasks.o
                0x00004424                xTaskResumeFromISR
 .text.vTaskStartScheduler
                0x000044c8       0x88 ./FreeRTOS/tasks.o
                0x000044c8                vTaskStartScheduler
 .text.vTaskEndScheduler
                0x00004550       0x24 ./FreeRTOS/tasks.o
                0x00004550                vTaskEndScheduler
 .text.vTaskSuspendAll
                0x00004574       0x10 ./FreeRTOS/tasks.o
                0x00004574                vTaskSuspendAll
 .text.xTaskGetTickCount
                0x00004584        0xc ./FreeRTOS/tasks.o
                0x00004584                xTaskGetTickCount
 .text.xTaskGetTickCountFromISR
                0x00004590       0x10 ./FreeRTOS/tasks.o
                0x00004590                xTaskGetTickCountFromISR
 .text.uxTaskGetNumberOfTasks
                0x000045a0        0xc ./FreeRTOS/tasks.o
                0x000045a0                uxTaskGetNumberOfTasks
 .text.pcTaskGetName
                0x000045ac       0x28 ./FreeRTOS/tasks.o
                0x000045ac                pcTaskGetName
 .text.xTaskIncrementTick
                0x000045d4      0x118 ./FreeRTOS/tasks.o
                0x000045d4                xTaskIncrementTick
 .text.xTaskResumeAll
                0x000046ec       0xf4 ./FreeRTOS/tasks.o
                0x000046ec                xTaskResumeAll
 .text.vTaskDelayUntil
                0x000047e0       0xa4 ./FreeRTOS/tasks.o
                0x000047e0                vTaskDelayUntil
 .text.vTaskDelay
                0x00004884       0x4c ./FreeRTOS/tasks.o
                0x00004884                vTaskDelay
 .text.xTaskCatchUpTicks
                0x000048d0       0x38 ./FreeRTOS/tasks.o
                0x000048d0                xTaskCatchUpTicks
 .text.vTaskSwitchContext
                0x00004908       0x98 ./FreeRTOS/tasks.o
                0x00004908                vTaskSwitchContext
 .text.vTaskSuspend
                0x000049a0       0xf8 ./FreeRTOS/tasks.o
                0x000049a0                vTaskSuspend
 .text.vTaskPlaceOnEventList
                0x00004a98       0x30 ./FreeRTOS/tasks.o
                0x00004a98                vTaskPlaceOnEventList
 .text.vTaskPlaceOnUnorderedEventList
                0x00004ac8       0x5c ./FreeRTOS/tasks.o
                0x00004ac8                vTaskPlaceOnUnorderedEventList
 .text.vTaskPlaceOnEventListRestricted
                0x00004b24       0x38 ./FreeRTOS/tasks.o
                0x00004b24                vTaskPlaceOnEventListRestricted
 .text.xTaskRemoveFromEventList
                0x00004b5c       0x8c ./FreeRTOS/tasks.o
                0x00004b5c                xTaskRemoveFromEventList
 .text.vTaskRemoveFromUnorderedEventList
                0x00004be8       0x88 ./FreeRTOS/tasks.o
                0x00004be8                vTaskRemoveFromUnorderedEventList
 .text.vTaskSetTimeOutState
                0x00004c70       0x38 ./FreeRTOS/tasks.o
                0x00004c70                vTaskSetTimeOutState
 .text.vTaskInternalSetTimeOutState
                0x00004ca8       0x18 ./FreeRTOS/tasks.o
                0x00004ca8                vTaskInternalSetTimeOutState
 .text.xTaskCheckForTimeOut
                0x00004cc0       0x84 ./FreeRTOS/tasks.o
                0x00004cc0                xTaskCheckForTimeOut
 .text.vTaskMissedYield
                0x00004d44        0xc ./FreeRTOS/tasks.o
                0x00004d44                vTaskMissedYield
 .text.xTaskGetCurrentTaskHandle
                0x00004d50        0xc ./FreeRTOS/tasks.o
                0x00004d50                xTaskGetCurrentTaskHandle
 .text.xTaskGetSchedulerState
                0x00004d5c       0x20 ./FreeRTOS/tasks.o
                0x00004d5c                xTaskGetSchedulerState
 .text.xTaskPriorityInherit
                0x00004d7c       0xac ./FreeRTOS/tasks.o
                0x00004d7c                xTaskPriorityInherit
 .text.xTaskPriorityDisinherit
                0x00004e28       0xa4 ./FreeRTOS/tasks.o
                0x00004e28                xTaskPriorityDisinherit
 .text.vTaskPriorityDisinheritAfterTimeout
                0x00004ecc       0xb4 ./FreeRTOS/tasks.o
                0x00004ecc                vTaskPriorityDisinheritAfterTimeout
 .text.uxTaskResetEventItemValue
                0x00004f80       0x18 ./FreeRTOS/tasks.o
                0x00004f80                uxTaskResetEventItemValue
 .text.pvTaskIncrementMutexHeldCount
                0x00004f98       0x1c ./FreeRTOS/tasks.o
                0x00004f98                pvTaskIncrementMutexHeldCount
 .text.ulTaskGenericNotifyTake
                0x00004fb4       0xac ./FreeRTOS/tasks.o
                0x00004fb4                ulTaskGenericNotifyTake
 .text.xTaskGenericNotifyWait
                0x00005060       0xd0 ./FreeRTOS/tasks.o
                0x00005060                xTaskGenericNotifyWait
 .text.xTaskGenericNotify
                0x00005130      0x14c ./FreeRTOS/tasks.o
                0x00005130                xTaskGenericNotify
 .text.xTaskGenericNotifyFromISR
                0x0000527c      0x180 ./FreeRTOS/tasks.o
                0x0000527c                xTaskGenericNotifyFromISR
 .text.vTaskGenericNotifyGiveFromISR
                0x000053fc       0xec ./FreeRTOS/tasks.o
                0x000053fc                vTaskGenericNotifyGiveFromISR
 .text.xTaskGenericNotifyStateClear
                0x000054e8       0x4c ./FreeRTOS/tasks.o
                0x000054e8                xTaskGenericNotifyStateClear
 .text.ulTaskGenericNotifyValueClear
                0x00005534       0x34 ./FreeRTOS/tasks.o
                0x00005534                ulTaskGenericNotifyValueClear
 .text.prvGetNextExpireTime
                0x00005568       0x20 ./FreeRTOS/timers.o
 .text.prvInsertTimerInActiveList
                0x00005588       0x48 ./FreeRTOS/timers.o
 .text.prvCheckForValidListAndQueue
                0x000055d0       0x5c ./FreeRTOS/timers.o
 .text.prvInitialiseNewTimer
                0x0000562c       0x4c ./FreeRTOS/timers.o
 .text.xTimerCreateTimerTask
                0x00005678       0x50 ./FreeRTOS/timers.o
                0x00005678                xTimerCreateTimerTask
 .text.xTimerCreate
                0x000056c8       0x38 ./FreeRTOS/timers.o
                0x000056c8                xTimerCreate
 .text.xTimerGenericCommand
                0x00005700       0x6c ./FreeRTOS/timers.o
                0x00005700                xTimerGenericCommand
 .text.prvSwitchTimerLists
                0x0000576c       0x7c ./FreeRTOS/timers.o
 .text.prvSampleTimeNow
                0x000057e8       0x2c ./FreeRTOS/timers.o
 .text.prvProcessExpiredTimer
                0x00005814       0x6c ./FreeRTOS/timers.o
 .text.prvProcessTimerOrBlockTask
                0x00005880       0x74 ./FreeRTOS/timers.o
 .text.prvProcessReceivedCommands
                0x000058f4       0xfc ./FreeRTOS/timers.o
 .text.prvTimerTask
                0x000059f0       0x16 ./FreeRTOS/timers.o
 *fill*         0x00005a06        0x2 
 .text.xTimerGetTimerDaemonTaskHandle
                0x00005a08       0x20 ./FreeRTOS/timers.o
                0x00005a08                xTimerGetTimerDaemonTaskHandle
 .text.xTimerGetPeriod
                0x00005a28       0x18 ./FreeRTOS/timers.o
                0x00005a28                xTimerGetPeriod
 .text.vTimerSetReloadMode
                0x00005a40       0x40 ./FreeRTOS/timers.o
                0x00005a40                vTimerSetReloadMode
 .text.uxTimerGetReloadMode
                0x00005a80       0x34 ./FreeRTOS/timers.o
                0x00005a80                uxTimerGetReloadMode
 .text.xTimerGetExpiryTime
                0x00005ab4       0x18 ./FreeRTOS/timers.o
                0x00005ab4                xTimerGetExpiryTime
 .text.pcTimerGetName
                0x00005acc       0x18 ./FreeRTOS/timers.o
                0x00005acc                pcTimerGetName
 .text.xTimerIsTimerActive
                0x00005ae4       0x34 ./FreeRTOS/timers.o
                0x00005ae4                xTimerIsTimerActive
 .text.pvTimerGetTimerID
                0x00005b18       0x26 ./FreeRTOS/timers.o
                0x00005b18                pvTimerGetTimerID
 .text.vTimerSetTimerID
                0x00005b3e       0x26 ./FreeRTOS/timers.o
                0x00005b3e                vTimerSetTimerID
 .text.prvTaskExitError
                0x00005b64       0x40 ./FreeRTOS/portable/GCC/ARM_CM4F/port.o
 .text.prvPortStartFirstTask
                0x00005ba4       0x28 ./FreeRTOS/portable/GCC/ARM_CM4F/port.o
 .text.vPortEnableVFP
                0x00005bcc       0x14 ./FreeRTOS/portable/GCC/ARM_CM4F/port.o
 .text.pxPortInitialiseStack
                0x00005be0       0x2c ./FreeRTOS/portable/GCC/ARM_CM4F/port.o
                0x00005be0                pxPortInitialiseStack
 *fill*         0x00005c0c        0x4 
 .text.vPortSVCHandler
                0x00005c10       0x24 ./FreeRTOS/portable/GCC/ARM_CM4F/port.o
                0x00005c10                vPortSVCHandler
 .text.vPortEndScheduler
                0x00005c34       0x24 ./FreeRTOS/portable/GCC/ARM_CM4F/port.o
                0x00005c34                vPortEndScheduler
 .text.vPortEnterCritical
                0x00005c58       0x44 ./FreeRTOS/portable/GCC/ARM_CM4F/port.o
                0x00005c58                vPortEnterCritical
 .text.vPortExitCritical
                0x00005c9c       0x2c ./FreeRTOS/portable/GCC/ARM_CM4F/port.o
                0x00005c9c                vPortExitCritical
 *fill*         0x00005cc8        0x8 
 .text.xPortPendSVHandler
                0x00005cd0       0x64 ./FreeRTOS/portable/GCC/ARM_CM4F/port.o
                0x00005cd0                xPortPendSVHandler
 .text.xPortSysTickHandler
                0x00005d34       0x2c ./FreeRTOS/portable/GCC/ARM_CM4F/port.o
                0x00005d34                xPortSysTickHandler
 .text.vPortSetupTimerInterrupt
                0x00005d60       0x28 ./FreeRTOS/portable/GCC/ARM_CM4F/port.o
                0x00005d60                vPortSetupTimerInterrupt
 .text.xPortStartScheduler
                0x00005d88      0x110 ./FreeRTOS/portable/GCC/ARM_CM4F/port.o
                0x00005d88                xPortStartScheduler
 .text.vPortValidateInterruptPriority
                0x00005e98       0x5c ./FreeRTOS/portable/GCC/ARM_CM4F/port.o
                0x00005e98                vPortValidateInterruptPriority
 .text.prvHeapInit
                0x00005ef4       0x64 ./FreeRTOS/portable/MemMang/heap_4.o
 .text.prvInsertBlockIntoFreeList
                0x00005f58       0x58 ./FreeRTOS/portable/MemMang/heap_4.o
 .text.pvPortMalloc
                0x00005fb0      0x114 ./FreeRTOS/portable/MemMang/heap_4.o
                0x00005fb0                pvPortMalloc
 .text.vPortFree
                0x000060c4       0x7c ./FreeRTOS/portable/MemMang/heap_4.o
                0x000060c4                vPortFree
 .text.xPortGetFreeHeapSize
                0x00006140        0xc ./FreeRTOS/portable/MemMang/heap_4.o
                0x00006140                xPortGetFreeHeapSize
 .text.xPortGetMinimumEverFreeHeapSize
                0x0000614c        0xc ./FreeRTOS/portable/MemMang/heap_4.o
                0x0000614c                xPortGetMinimumEverFreeHeapSize
 .text.vPortInitialiseBlocks
                0x00006158        0x2 ./FreeRTOS/portable/MemMang/heap_4.o
                0x00006158                vPortInitialiseBlocks
 *fill*         0x0000615a        0x2 
 .text.vPortGetHeapStats
                0x0000615c       0x80 ./FreeRTOS/portable/MemMang/heap_4.o
                0x0000615c                vPortGetHeapStats
 .text.fs_open  0x000061dc       0x48 ./lwip/apps/httpserver_raw/fs.o
                0x000061dc                fs_open
 .text.fs_close
                0x00006224        0x2 ./lwip/apps/httpserver_raw/fs.o
                0x00006224                fs_close
 .text.fs_bytes_left
                0x00006226        0x8 ./lwip/apps/httpserver_raw/fs.o
                0x00006226                fs_bytes_left
 *fill*         0x0000622e        0x2 
 .text.httpd_init_pcb
                0x00006230       0x6c ./lwip/apps/httpserver_raw/httpd.o
 .text.get_http_content_length
                0x0000629c       0x80 ./lwip/apps/httpserver_raw/httpd.o
 .text.http_write
                0x0000631c       0x98 ./lwip/apps/httpserver_raw/httpd.o
 .text.http_send_data_nonssi
                0x000063b4       0x42 ./lwip/apps/httpserver_raw/httpd.o
 *fill*         0x000063f6        0x2 
 .text.get_tag_insert
                0x000063f8      0x11c ./lwip/apps/httpserver_raw/httpd.o
 .text.http_send_data_ssi
                0x00006514      0x388 ./lwip/apps/httpserver_raw/httpd.o
 .text.http_ssi_state_free
                0x0000689c        0xc ./lwip/apps/httpserver_raw/httpd.o
 .text.http_state_eof
                0x000068a8       0x2a ./lwip/apps/httpserver_raw/httpd.o
 .text.http_state_free
                0x000068d2       0x14 ./lwip/apps/httpserver_raw/httpd.o
 *fill*         0x000068e6        0x2 
 .text.http_close_or_abort_conn
                0x000068e8       0x60 ./lwip/apps/httpserver_raw/httpd.o
 .text.http_close_conn
                0x00006948        0xa ./lwip/apps/httpserver_raw/httpd.o
 .text.http_eof
                0x00006952        0x8 ./lwip/apps/httpserver_raw/httpd.o
 *fill*         0x0000695a        0x2 
 .text.http_check_eof
                0x0000695c       0x48 ./lwip/apps/httpserver_raw/httpd.o
 .text.http_send_headers
                0x000069a4      0x11e ./lwip/apps/httpserver_raw/httpd.o
 .text.http_send
                0x00006ac2       0x78 ./lwip/apps/httpserver_raw/httpd.o
 .text.http_sent
                0x00006b3a       0x1c ./lwip/apps/httpserver_raw/httpd.o
 .text.http_err
                0x00006b56        0xc ./lwip/apps/httpserver_raw/httpd.o
 .text.http_poll
                0x00006b62       0x42 ./lwip/apps/httpserver_raw/httpd.o
 .text.http_get_404_file
                0x00006ba4       0x44 ./lwip/apps/httpserver_raw/httpd.o
 .text.extract_uri_parameters
                0x00006be8       0x7a ./lwip/apps/httpserver_raw/httpd.o
 *fill*         0x00006c62        0x2 
 .text.http_uri_is_ssi
                0x00006c64       0x60 ./lwip/apps/httpserver_raw/httpd.o
 .text.http_ssi_state_alloc
                0x00006cc4       0x18 ./lwip/apps/httpserver_raw/httpd.o
 .text.http_state_init
                0x00006cdc       0x14 ./lwip/apps/httpserver_raw/httpd.o
 .text.http_state_alloc
                0x00006cf0       0x14 ./lwip/apps/httpserver_raw/httpd.o
 .text.http_accept
                0x00006d04       0x6c ./lwip/apps/httpserver_raw/httpd.o
 .text.get_http_headers
                0x00006d70      0x118 ./lwip/apps/httpserver_raw/httpd.o
 .text.http_init_file
                0x00006e88       0xd8 ./lwip/apps/httpserver_raw/httpd.o
 .text.http_find_file
                0x00006f60      0x19c ./lwip/apps/httpserver_raw/httpd.o
 .text.http_parse_request
                0x000070fc      0x150 ./lwip/apps/httpserver_raw/httpd.o
 .text.http_recv
                0x0000724c       0xb0 ./lwip/apps/httpserver_raw/httpd.o
 .text.httpd_init
                0x000072fc       0x34 ./lwip/apps/httpserver_raw/httpd.o
                0x000072fc                httpd_init
 .text.http_set_ssi_handler
                0x00007330       0x70 ./lwip/apps/httpserver_raw/httpd.o
                0x00007330                http_set_ssi_handler
 .text.http_set_cgi_handlers
                0x000073a0       0x50 ./lwip/apps/httpserver_raw/httpd.o
                0x000073a0                http_set_cgi_handlers
 .text.lwIPPrivateInit
                0x000073f0       0xc4 ./lwip/lwiplib.o
 .text.lwIPLinkDetect
                0x000074b4       0x7c ./lwip/lwiplib.o
 .text.lwIPPrivateLinkTimer
                0x00007530       0x18 ./lwip/lwiplib.o
 .text.lwIPPrivateNetworkConfigChange
                0x00007548       0xa0 ./lwip/lwiplib.o
 .text.lwIPPrivateHostTimer
                0x000075e8       0x18 ./lwip/lwiplib.o
 .text.lwIPInterruptTask
                0x00007600       0x44 ./lwip/lwiplib.o
 .text.lwIPInit
                0x00007644      0x114 ./lwip/lwiplib.o
                0x00007644                lwIPInit
 .text.lwIPTimerCallbackRegister
                0x00007758        0xc ./lwip/lwiplib.o
                0x00007758                lwIPTimerCallbackRegister
 .text.lwIPEthernetIntHandler
                0x00007764       0x90 ./lwip/lwiplib.o
                0x00007764                lwIPEthernetIntHandler
 .text.lwIPLocalIPAddrGet
                0x000077f4       0x1c ./lwip/lwiplib.o
                0x000077f4                lwIPLocalIPAddrGet
 .text.lwIPLocalNetMaskGet
                0x00007810        0xc ./lwip/lwiplib.o
                0x00007810                lwIPLocalNetMaskGet
 .text.lwIPLocalGWAddrGet
                0x0000781c        0xc ./lwip/lwiplib.o
                0x0000781c                lwIPLocalGWAddrGet
 .text.lwIPLocalMACGet
                0x00007828       0x1c ./lwip/lwiplib.o
                0x00007828                lwIPLocalMACGet
 .text.lwIPNetworkConfigChange
                0x00007844       0x28 ./lwip/lwiplib.o
                0x00007844                lwIPNetworkConfigChange
 .text.tivaif_process_transmit
                0x0000786c       0x56 ./lwip/port/tiva-tm4c129.o
 *fill*         0x000078c2        0x2 
 .text.tivaif_check_pbuf
                0x000078c4       0x50 ./lwip/port/tiva-tm4c129.o
 .text.tivaif_transmit
                0x00007914      0x11c ./lwip/port/tiva-tm4c129.o
 .text.tivaif_receive
                0x00007a30      0x146 ./lwip/port/tiva-tm4c129.o
 *fill*         0x00007b76        0x2 
 .text.InitDMADescriptors
                0x00007b78       0xf4 ./lwip/port/tiva-tm4c129.o
                0x00007b78                InitDMADescriptors
 .text.tivaif_hwinit
                0x00007c6c       0xbc ./lwip/port/tiva-tm4c129.o
 .text.tivaif_init
                0x00007d28       0x58 ./lwip/port/tiva-tm4c129.o
                0x00007d28                tivaif_init
 .text.tivaif_process_phy_interrupt
                0x00007d80       0xa0 ./lwip/port/tiva-tm4c129.o
                0x00007d80                tivaif_process_phy_interrupt
 .text.tivaif_interrupt
                0x00007e20       0x58 ./lwip/port/tiva-tm4c129.o
                0x00007e20                tivaif_interrupt
 .text.netconn_apimsg
                0x00007e78       0x18 ./lwip/src/api/api_lib.o
 .text.netconn_tcp_recvd_msg
                0x00007e90       0x40 ./lwip/src/api/api_lib.o
 .text.netconn_close_shutdown
                0x00007ed0       0x44 ./lwip/src/api/api_lib.o
 .text.netconn_new_with_proto_and_callback
                0x00007f14       0xb8 ./lwip/src/api/api_lib.o
                0x00007f14                netconn_new_with_proto_and_callback
 .text.netconn_prepare_delete
                0x00007fcc       0x24 ./lwip/src/api/api_lib.o
                0x00007fcc                netconn_prepare_delete
 .text.netconn_delete
                0x00007ff0       0x1c ./lwip/src/api/api_lib.o
                0x00007ff0                netconn_delete
 .text.netconn_getaddr
                0x0000800c       0x74 ./lwip/src/api/api_lib.o
                0x0000800c                netconn_getaddr
 .text.netconn_bind
                0x00008080       0x4c ./lwip/src/api/api_lib.o
                0x00008080                netconn_bind
 .text.netconn_bind_if
                0x000080cc       0x40 ./lwip/src/api/api_lib.o
                0x000080cc                netconn_bind_if
 .text.netconn_connect
                0x0000810c       0x4c ./lwip/src/api/api_lib.o
                0x0000810c                netconn_connect
 .text.netconn_disconnect
                0x00008158       0x3c ./lwip/src/api/api_lib.o
                0x00008158                netconn_disconnect
 .text.netconn_listen_with_backlog
                0x00008194       0x3c ./lwip/src/api/api_lib.o
                0x00008194                netconn_listen_with_backlog
 .text.netconn_tcp_recvd
                0x000081d0       0x3c ./lwip/src/api/api_lib.o
                0x000081d0                netconn_tcp_recvd
 .text.netconn_send
                0x0000820c       0x3c ./lwip/src/api/api_lib.o
                0x0000820c                netconn_send
 .text.netconn_sendto
                0x00008248       0x20 ./lwip/src/api/api_lib.o
                0x00008248                netconn_sendto
 .text.netconn_write_vectors_partly
                0x00008268      0x114 ./lwip/src/api/api_lib.o
                0x00008268                netconn_write_vectors_partly
 .text.netconn_write_partly
                0x0000837c       0x1a ./lwip/src/api/api_lib.o
                0x0000837c                netconn_write_partly
 .text.netconn_close
                0x00008396        0xa ./lwip/src/api/api_lib.o
                0x00008396                netconn_close
 .text.netconn_err
                0x000083a0       0x1e ./lwip/src/api/api_lib.o
                0x000083a0                netconn_err
 *fill*         0x000083be        0x2 
 .text.netconn_accept
                0x000083c0       0xd8 ./lwip/src/api/api_lib.o
                0x000083c0                netconn_accept
 .text.netconn_recv_data
                0x00008498      0x138 ./lwip/src/api/api_lib.o
 .text.netconn_recv_udp_raw_netbuf
                0x000085d0       0x38 ./lwip/src/api/api_lib.o
                0x000085d0                netconn_recv_udp_raw_netbuf
 .text.netconn_recv_udp_raw_netbuf_flags
                0x00008608       0x34 ./lwip/src/api/api_lib.o
                0x00008608                netconn_recv_udp_raw_netbuf_flags
 .text.netconn_recv_data_tcp
                0x0000863c       0xac ./lwip/src/api/api_lib.o
 .text.netconn_recv_tcp_pbuf
                0x000086e8       0x38 ./lwip/src/api/api_lib.o
                0x000086e8                netconn_recv_tcp_pbuf
 .text.netconn_recv_tcp_pbuf_flags
                0x00008720       0x34 ./lwip/src/api/api_lib.o
                0x00008720                netconn_recv_tcp_pbuf_flags
 .text.netconn_recv
                0x00008754       0xb8 ./lwip/src/api/api_lib.o
                0x00008754                netconn_recv
 .text.netconn_shutdown
                0x0000880c       0x1a ./lwip/src/api/api_lib.o
                0x0000880c                netconn_shutdown
 *fill*         0x00008826        0x2 
 .text.netconn_gethostbyname
                0x00008828       0x84 ./lwip/src/api/api_lib.o
                0x00008828                netconn_gethostbyname
 .text.lwip_netconn_err_to_msg
                0x000088ac       0x50 ./lwip/src/api/api_msg.o
 .text.recv_udp
                0x000088fc       0xc4 ./lwip/src/api/api_msg.o
 .text.setup_tcp
                0x000089c0       0x40 ./lwip/src/api/api_msg.o
 .text.pcb_new  0x00008a00       0x88 ./lwip/src/api/api_msg.o
 .text.err_tcp  0x00008a88      0x12c ./lwip/src/api/api_msg.o
 .text.lwip_netconn_do_connected
                0x00008bb4       0xcc ./lwip/src/api/api_msg.o
 .text.lwip_netconn_do_dns_found
                0x00008c80       0x22 ./lwip/src/api/api_msg.o
 *fill*         0x00008ca2        0x2 
 .text.lwip_netconn_do_writemore
                0x00008ca4      0x2c8 ./lwip/src/api/api_msg.o
 .text.lwip_netconn_do_close_internal
                0x00008f6c      0x22c ./lwip/src/api/api_msg.o
 .text.poll_tcp
                0x00009198       0x7c ./lwip/src/api/api_msg.o
 .text.sent_tcp
                0x00009214       0x78 ./lwip/src/api/api_msg.o
 .text.recv_tcp
                0x0000928c       0xcc ./lwip/src/api/api_msg.o
 .text.lwip_netconn_is_err_msg
                0x00009358       0x5c ./lwip/src/api/api_msg.o
                0x00009358                lwip_netconn_is_err_msg
 .text.lwip_netconn_do_newconn
                0x000093b4       0x14 ./lwip/src/api/api_msg.o
                0x000093b4                lwip_netconn_do_newconn
 .text.netconn_alloc
                0x000093c8       0x90 ./lwip/src/api/api_msg.o
                0x000093c8                netconn_alloc
 .text.netconn_free
                0x00009458       0x78 ./lwip/src/api/api_msg.o
                0x00009458                netconn_free
 .text.netconn_drain
                0x000094d0       0xa8 ./lwip/src/api/api_msg.o
 .text.accept_function
                0x00009578      0x128 ./lwip/src/api/api_msg.o
 .text.lwip_netconn_do_delconn
                0x000096a0      0x148 ./lwip/src/api/api_msg.o
                0x000096a0                lwip_netconn_do_delconn
 .text.lwip_netconn_do_bind
                0x000097e8       0x3a ./lwip/src/api/api_msg.o
                0x000097e8                lwip_netconn_do_bind
 .text.lwip_netconn_do_bind_if
                0x00009822       0x46 ./lwip/src/api/api_msg.o
                0x00009822                lwip_netconn_do_bind_if
 .text.lwip_netconn_do_connect
                0x00009868      0x10c ./lwip/src/api/api_msg.o
                0x00009868                lwip_netconn_do_connect
 .text.lwip_netconn_do_disconnect
                0x00009974       0x22 ./lwip/src/api/api_msg.o
                0x00009974                lwip_netconn_do_disconnect
 *fill*         0x00009996        0x2 
 .text.lwip_netconn_do_listen
                0x00009998       0xdc ./lwip/src/api/api_msg.o
                0x00009998                lwip_netconn_do_listen
 .text.lwip_netconn_do_send
                0x00009a74       0x4c ./lwip/src/api/api_msg.o
                0x00009a74                lwip_netconn_do_send
 .text.lwip_netconn_do_recv
                0x00009ac0       0x3c ./lwip/src/api/api_msg.o
                0x00009ac0                lwip_netconn_do_recv
 .text.lwip_netconn_do_write
                0x00009afc       0xd8 ./lwip/src/api/api_msg.o
                0x00009afc                lwip_netconn_do_write
 .text.lwip_netconn_do_getaddr
                0x00009bd4       0x9c ./lwip/src/api/api_msg.o
                0x00009bd4                lwip_netconn_do_getaddr
 .text.lwip_netconn_do_close
                0x00009c70       0xd0 ./lwip/src/api/api_msg.o
                0x00009c70                lwip_netconn_do_close
 .text.lwip_netconn_do_gethostbyname
                0x00009d40       0x70 ./lwip/src/api/api_msg.o
                0x00009d40                lwip_netconn_do_gethostbyname
 .text.err_to_errno
                0x00009db0       0x20 ./lwip/src/api/err.o
                0x00009db0                err_to_errno
 .text.lwip_if_indextoname
                0x00009dd0       0x10 ./lwip/src/api/if_api.o
                0x00009dd0                lwip_if_indextoname
 .text.lwip_if_nametoindex
                0x00009de0        0x4 ./lwip/src/api/if_api.o
                0x00009de0                lwip_if_nametoindex
 .text.netbuf_new
                0x00009de4       0x1a ./lwip/src/api/netbuf.o
                0x00009de4                netbuf_new
 .text.netbuf_delete
                0x00009dfe       0x20 ./lwip/src/api/netbuf.o
                0x00009dfe                netbuf_delete
 *fill*         0x00009e1e        0x2 
 .text.netbuf_alloc
                0x00009e20       0x60 ./lwip/src/api/netbuf.o
                0x00009e20                netbuf_alloc
 .text.netbuf_free
                0x00009e80       0x30 ./lwip/src/api/netbuf.o
                0x00009e80                netbuf_free
 .text.netbuf_ref
                0x00009eb0       0x5c ./lwip/src/api/netbuf.o
                0x00009eb0                netbuf_ref
 .text.netbuf_chain
                0x00009f0c       0x4c ./lwip/src/api/netbuf.o
                0x00009f0c                netbuf_chain
 .text.netbuf_data
                0x00009f58       0x6c ./lwip/src/api/netbuf.o
                0x00009f58                netbuf_data
 .text.netbuf_next
                0x00009fc4       0x3c ./lwip/src/api/netbuf.o
                0x00009fc4                netbuf_next
 .text.netbuf_first
                0x0000a000       0x24 ./lwip/src/api/netbuf.o
                0x0000a000                netbuf_first
 .text.lwip_gethostbyname
                0x0000a024       0x68 ./lwip/src/api/netdb.o
                0x0000a024                lwip_gethostbyname
 .text.lwip_gethostbyname_r
                0x0000a08c       0xb0 ./lwip/src/api/netdb.o
                0x0000a08c                lwip_gethostbyname_r
 .text.lwip_freeaddrinfo
                0x0000a13c       0x18 ./lwip/src/api/netdb.o
                0x0000a13c                lwip_freeaddrinfo
 .text.lwip_getaddrinfo
                0x0000a154      0x164 ./lwip/src/api/netdb.o
                0x0000a154                lwip_getaddrinfo
 .text.tryget_socket_unconn_nouse
                0x0000a2b8       0x14 ./lwip/src/api/sockets.o
 .text.tryget_socket_unconn
                0x0000a2cc        0x8 ./lwip/src/api/sockets.o
 .text.tryget_socket_unconn_locked
                0x0000a2d4        0x8 ./lwip/src/api/sockets.o
 .text.tryget_socket
                0x0000a2dc       0x1a ./lwip/src/api/sockets.o
 *fill*         0x0000a2f6        0x2 
 .text.get_socket
                0x0000a2f8       0x1c ./lwip/src/api/sockets.o
 .text.free_socket_locked
                0x0000a314       0x12 ./lwip/src/api/sockets.o
 .text.lwip_poll_should_wake
                0x0000a326       0x4c ./lwip/src/api/sockets.o
 *fill*         0x0000a372        0x2 
 .text.lwip_sockopt_to_ipopt
                0x0000a374       0x30 ./lwip/src/api/sockets.o
 .text.alloc_socket
                0x0000a3a4       0x88 ./lwip/src/api/sockets.o
 .text.lwip_selscan
                0x0000a42c      0x1a8 ./lwip/src/api/sockets.o
 .text.lwip_pollscan
                0x0000a5d4      0x148 ./lwip/src/api/sockets.o
 .text.lwip_link_select_cb
                0x0000a71c       0x28 ./lwip/src/api/sockets.o
 .text.lwip_unlink_select_cb
                0x0000a744       0x70 ./lwip/src/api/sockets.o
 .text.lwip_sock_make_addr
                0x0000a7b4       0xa0 ./lwip/src/api/sockets.o
 .text.lwip_recv_tcp_from
                0x0000a854       0x3e ./lwip/src/api/sockets.o
 *fill*         0x0000a892        0x2 
 .text.lwip_getaddrname
                0x0000a894       0x80 ./lwip/src/api/sockets.o
 .text.free_socket_free_elements
                0x0000a914       0x22 ./lwip/src/api/sockets.o
 .text.free_socket
                0x0000a936       0x34 ./lwip/src/api/sockets.o
 *fill*         0x0000a96a        0x2 
 .text.lwip_recv_tcp
                0x0000a96c      0x17c ./lwip/src/api/sockets.o
 .text.lwip_recvfrom_udp_raw
                0x0000aae8      0x114 ./lwip/src/api/sockets.o
 .text.select_check_waiters
                0x0000abfc       0xa8 ./lwip/src/api/sockets.o
 .text.event_callback
                0x0000aca4       0xf0 ./lwip/src/api/sockets.o
 .text.lwip_getsockopt_impl
                0x0000ad94      0x2a4 ./lwip/src/api/sockets.o
 .text.lwip_setsockopt_impl
                0x0000b038      0x294 ./lwip/src/api/sockets.o
 .text.lwip_socket_thread_init
                0x0000b2cc        0x2 ./lwip/src/api/sockets.o
                0x0000b2cc                lwip_socket_thread_init
 .text.lwip_socket_thread_cleanup
                0x0000b2ce        0x2 ./lwip/src/api/sockets.o
                0x0000b2ce                lwip_socket_thread_cleanup
 .text.lwip_socket_dbg_get_socket
                0x0000b2d0        0x8 ./lwip/src/api/sockets.o
                0x0000b2d0                lwip_socket_dbg_get_socket
 .text.lwip_accept
                0x0000b2d8      0x188 ./lwip/src/api/sockets.o
                0x0000b2d8                lwip_accept
 .text.lwip_bind
                0x0000b460       0x94 ./lwip/src/api/sockets.o
                0x0000b460                lwip_bind
 .text.lwip_close
                0x0000b4f4       0x78 ./lwip/src/api/sockets.o
                0x0000b4f4                lwip_close
 .text.lwip_connect
                0x0000b56c       0x9c ./lwip/src/api/sockets.o
                0x0000b56c                lwip_connect
 .text.lwip_listen
                0x0000b608       0x60 ./lwip/src/api/sockets.o
                0x0000b608                lwip_listen
 .text.lwip_recvfrom
                0x0000b668       0xc8 ./lwip/src/api/sockets.o
                0x0000b668                lwip_recvfrom
 .text.lwip_read
                0x0000b730       0x14 ./lwip/src/api/sockets.o
                0x0000b730                lwip_read
 .text.lwip_recv
                0x0000b744       0x12 ./lwip/src/api/sockets.o
                0x0000b744                lwip_recv
 *fill*         0x0000b756        0x2 
 .text.lwip_recvmsg
                0x0000b758      0x16c ./lwip/src/api/sockets.o
                0x0000b758                lwip_recvmsg
 .text.lwip_readv
                0x0000b8c4       0x22 ./lwip/src/api/sockets.o
                0x0000b8c4                lwip_readv
 *fill*         0x0000b8e6        0x2 
 .text.lwip_sendmsg
                0x0000b8e8      0x23c ./lwip/src/api/sockets.o
                0x0000b8e8                lwip_sendmsg
 .text.lwip_sendto
                0x0000bb24      0x100 ./lwip/src/api/sockets.o
                0x0000bb24                lwip_sendto
 .text.lwip_send
                0x0000bc24       0x80 ./lwip/src/api/sockets.o
                0x0000bc24                lwip_send
 .text.lwip_socket
                0x0000bca4       0x88 ./lwip/src/api/sockets.o
                0x0000bca4                lwip_socket
 .text.lwip_write
                0x0000bd2c        0xa ./lwip/src/api/sockets.o
                0x0000bd2c                lwip_write
 .text.lwip_writev
                0x0000bd36       0x22 ./lwip/src/api/sockets.o
                0x0000bd36                lwip_writev
 .text.lwip_select
                0x0000bd58      0x29c ./lwip/src/api/sockets.o
                0x0000bd58                lwip_select
 .text.lwip_poll
                0x0000bff4       0xd4 ./lwip/src/api/sockets.o
                0x0000bff4                lwip_poll
 .text.lwip_shutdown
                0x0000c0c8       0x7c ./lwip/src/api/sockets.o
                0x0000c0c8                lwip_shutdown
 .text.lwip_getpeername
                0x0000c144        0xa ./lwip/src/api/sockets.o
                0x0000c144                lwip_getpeername
 .text.lwip_getsockname
                0x0000c14e        0xa ./lwip/src/api/sockets.o
                0x0000c14e                lwip_getsockname
 .text.lwip_getsockopt
                0x0000c158       0x68 ./lwip/src/api/sockets.o
                0x0000c158                lwip_getsockopt
 .text.lwip_setsockopt
                0x0000c1c0       0x68 ./lwip/src/api/sockets.o
                0x0000c1c0                lwip_setsockopt
 .text.lwip_ioctl
                0x0000c228       0x58 ./lwip/src/api/sockets.o
                0x0000c228                lwip_ioctl
 .text.lwip_fcntl
                0x0000c280       0xb8 ./lwip/src/api/sockets.o
                0x0000c280                lwip_fcntl
 .text.lwip_inet_ntop
                0x0000c338       0x40 ./lwip/src/api/sockets.o
                0x0000c338                lwip_inet_ntop
 .text.lwip_inet_pton
                0x0000c378       0x24 ./lwip/src/api/sockets.o
                0x0000c378                lwip_inet_pton
 .text.tcpip_timeouts_mbox_fetch
                0x0000c39c       0x60 ./lwip/src/api/tcpip.o
 .text.tcpip_thread_handle_msg
                0x0000c3fc       0x60 ./lwip/src/api/tcpip.o
 .text.tcpip_thread
                0x0000c45c       0x54 ./lwip/src/api/tcpip.o
 .text.pbuf_free_int
                0x0000c4b0        0x8 ./lwip/src/api/tcpip.o
 .text.tcpip_inpkt
                0x0000c4b8       0x68 ./lwip/src/api/tcpip.o
                0x0000c4b8                tcpip_inpkt
 .text.tcpip_input
                0x0000c520       0x24 ./lwip/src/api/tcpip.o
                0x0000c520                tcpip_input
 .text.tcpip_callback
                0x0000c544       0x50 ./lwip/src/api/tcpip.o
                0x0000c544                tcpip_callback
 .text.tcpip_try_callback
                0x0000c594       0x64 ./lwip/src/api/tcpip.o
                0x0000c594                tcpip_try_callback
 .text.tcpip_send_msg_wait_sem
                0x0000c5f8       0x20 ./lwip/src/api/tcpip.o
                0x0000c5f8                tcpip_send_msg_wait_sem
 .text.tcpip_api_call
                0x0000c618       0x24 ./lwip/src/api/tcpip.o
                0x0000c618                tcpip_api_call
 .text.tcpip_callbackmsg_new
                0x0000c63c       0x20 ./lwip/src/api/tcpip.o
                0x0000c63c                tcpip_callbackmsg_new
 .text.tcpip_callbackmsg_delete
                0x0000c65c        0xc ./lwip/src/api/tcpip.o
                0x0000c65c                tcpip_callbackmsg_delete
 .text.tcpip_callbackmsg_trycallback
                0x0000c668       0x38 ./lwip/src/api/tcpip.o
                0x0000c668                tcpip_callbackmsg_trycallback
 .text.tcpip_callbackmsg_trycallback_fromisr
                0x0000c6a0       0x38 ./lwip/src/api/tcpip.o
                0x0000c6a0                tcpip_callbackmsg_trycallback_fromisr
 .text.tcpip_init
                0x0000c6d8       0x88 ./lwip/src/api/tcpip.o
                0x0000c6d8                tcpip_init
 .text.pbuf_free_callback
                0x0000c760       0x10 ./lwip/src/api/tcpip.o
                0x0000c760                pbuf_free_callback
 .text.mem_free_callback
                0x0000c770       0x10 ./lwip/src/api/tcpip.o
                0x0000c770                mem_free_callback
 .text.lwip_htons
                0x0000c780        0xa ./lwip/src/core/def.o
                0x0000c780                lwip_htons
 .text.lwip_htonl
                0x0000c78a       0x18 ./lwip/src/core/def.o
                0x0000c78a                lwip_htonl
 .text.lwip_strnstr
                0x0000c7a2       0x4e ./lwip/src/core/def.o
                0x0000c7a2                lwip_strnstr
 .text.lwip_stricmp
                0x0000c7f0       0x3a ./lwip/src/core/def.o
                0x0000c7f0                lwip_stricmp
 .text.lwip_strnicmp
                0x0000c82a       0x42 ./lwip/src/core/def.o
                0x0000c82a                lwip_strnicmp
 .text.lwip_itoa
                0x0000c86c       0x7c ./lwip/src/core/def.o
                0x0000c86c                lwip_itoa
 .text.dns_backupserver_available
                0x0000c8e8       0x28 ./lwip/src/core/dns.o
 .text.dns_create_txid
                0x0000c910       0x38 ./lwip/src/core/dns.o
 .text.dns_call_found
                0x0000c948       0xe0 ./lwip/src/core/dns.o
 .text.dns_correct_response
                0x0000ca28       0x64 ./lwip/src/core/dns.o
 .text.dns_send
                0x0000ca8c      0x194 ./lwip/src/core/dns.o
 .text.dns_check_entry
                0x0000cc20      0x130 ./lwip/src/core/dns.o
 .text.dns_check_entries
                0x0000cd50       0x16 ./lwip/src/core/dns.o
 *fill*         0x0000cd66        0x2 
 .text.dns_lookup
                0x0000cd68       0x58 ./lwip/src/core/dns.o
 .text.dns_alloc_random_port
                0x0000cdc0       0x48 ./lwip/src/core/dns.o
 .text.dns_alloc_pcb
                0x0000ce08       0x6c ./lwip/src/core/dns.o
 .text.dns_enqueue
                0x0000ce74      0x194 ./lwip/src/core/dns.o
 .text.dns_skip_name
                0x0000d008       0x68 ./lwip/src/core/dns.o
 .text.dns_compare_name
                0x0000d070       0xbe ./lwip/src/core/dns.o
 *fill*         0x0000d12e        0x2 
 .text.dns_recv
                0x0000d130      0x1f4 ./lwip/src/core/dns.o
 .text.dns_init
                0x0000d324        0x2 ./lwip/src/core/dns.o
                0x0000d324                dns_init
 *fill*         0x0000d326        0x2 
 .text.dns_setserver
                0x0000d328       0x28 ./lwip/src/core/dns.o
                0x0000d328                dns_setserver
 .text.dns_getserver
                0x0000d350       0x18 ./lwip/src/core/dns.o
                0x0000d350                dns_getserver
 .text.dns_tmr  0x0000d368        0x8 ./lwip/src/core/dns.o
                0x0000d368                dns_tmr
 .text.dns_gethostbyname_addrtype
                0x0000d370       0x78 ./lwip/src/core/dns.o
                0x0000d370                dns_gethostbyname_addrtype
 .text.dns_gethostbyname
                0x0000d3e8       0x10 ./lwip/src/core/dns.o
                0x0000d3e8                dns_gethostbyname
 .text.lwip_standard_chksum
                0x0000d3f8       0x60 ./lwip/src/core/inet_chksum.o
                0x0000d3f8                lwip_standard_chksum
 .text.inet_cksum_pseudo_base
                0x0000d458       0x6c ./lwip/src/core/inet_chksum.o
 .text.inet_cksum_pseudo_partial_base
                0x0000d4c4       0xa8 ./lwip/src/core/inet_chksum.o
 .text.inet_chksum_pseudo
                0x0000d56c       0x28 ./lwip/src/core/inet_chksum.o
                0x0000d56c                inet_chksum_pseudo
 .text.ip_chksum_pseudo
                0x0000d594       0x10 ./lwip/src/core/inet_chksum.o
                0x0000d594                ip_chksum_pseudo
 .text.inet_chksum_pseudo_partial
                0x0000d5a4       0x30 ./lwip/src/core/inet_chksum.o
                0x0000d5a4                inet_chksum_pseudo_partial
 .text.ip_chksum_pseudo_partial
                0x0000d5d4       0x14 ./lwip/src/core/inet_chksum.o
                0x0000d5d4                ip_chksum_pseudo_partial
 .text.inet_chksum
                0x0000d5e8        0xc ./lwip/src/core/inet_chksum.o
                0x0000d5e8                inet_chksum
 .text.inet_chksum_pbuf
                0x0000d5f4       0x48 ./lwip/src/core/inet_chksum.o
                0x0000d5f4                inet_chksum_pbuf
 .text.lwip_init
                0x0000d63c       0x24 ./lwip/src/core/init.o
                0x0000d63c                lwip_init
 .text.ptr_to_mem
                0x0000d660        0xc ./lwip/src/core/mem.o
 .text.mem_to_ptr
                0x0000d66c       0x10 ./lwip/src/core/mem.o
 .text.mem_link_valid
                0x0000d67c       0x5c ./lwip/src/core/mem.o
 .text.plug_holes
                0x0000d6d8      0x100 ./lwip/src/core/mem.o
 .text.mem_init
                0x0000d7d8       0x68 ./lwip/src/core/mem.o
                0x0000d7d8                mem_init
 .text.mem_free
                0x0000d840       0xf0 ./lwip/src/core/mem.o
                0x0000d840                mem_free
 .text.mem_trim
                0x0000d930      0x19c ./lwip/src/core/mem.o
                0x0000d930                mem_trim
 .text.mem_malloc
                0x0000dacc      0x17c ./lwip/src/core/mem.o
                0x0000dacc                mem_malloc
 .text.mem_calloc
                0x0000dc48       0x24 ./lwip/src/core/mem.o
                0x0000dc48                mem_calloc
 .text.do_memp_malloc_pool
                0x0000dc6c       0x48 ./lwip/src/core/memp.o
 .text.do_memp_free_pool
                0x0000dcb4       0x3c ./lwip/src/core/memp.o
 .text.memp_init_pool
                0x0000dcf0       0x28 ./lwip/src/core/memp.o
                0x0000dcf0                memp_init_pool
 .text.memp_init
                0x0000dd18       0x20 ./lwip/src/core/memp.o
                0x0000dd18                memp_init
 .text.memp_malloc_pool
                0x0000dd38       0x30 ./lwip/src/core/memp.o
                0x0000dd38                memp_malloc_pool
 .text.memp_malloc
                0x0000dd68       0x34 ./lwip/src/core/memp.o
                0x0000dd68                memp_malloc
 .text.memp_free_pool
                0x0000dd9c       0x34 ./lwip/src/core/memp.o
                0x0000dd9c                memp_free_pool
 .text.memp_free
                0x0000ddd0       0x34 ./lwip/src/core/memp.o
                0x0000ddd0                memp_free
 .text.netif_do_set_netmask
                0x0000de04       0x18 ./lwip/src/core/netif.o
 .text.netif_do_set_gw
                0x0000de1c       0x18 ./lwip/src/core/netif.o
 .text.netif_null_output_ip4
                0x0000de34        0x6 ./lwip/src/core/netif.o
 .text.netif_do_ip_addr_changed
                0x0000de3a       0x14 ./lwip/src/core/netif.o
 *fill*         0x0000de4e        0x2 
 .text.netif_issue_reports
                0x0000de50       0x50 ./lwip/src/core/netif.o
 .text.netif_do_set_ipaddr
                0x0000dea0       0x6c ./lwip/src/core/netif.o
 .text.netif_init
                0x0000df0c        0x2 ./lwip/src/core/netif.o
                0x0000df0c                netif_init
 *fill*         0x0000df0e        0x2 
 .text.netif_input
                0x0000df10       0x54 ./lwip/src/core/netif.o
                0x0000df10                netif_input
 .text.netif_set_ipaddr
                0x0000df64       0x3c ./lwip/src/core/netif.o
                0x0000df64                netif_set_ipaddr
 .text.netif_set_netmask
                0x0000dfa0       0x38 ./lwip/src/core/netif.o
                0x0000dfa0                netif_set_netmask
 .text.netif_set_gw
                0x0000dfd8       0x38 ./lwip/src/core/netif.o
                0x0000dfd8                netif_set_gw
 .text.netif_set_addr
                0x0000e010       0x6c ./lwip/src/core/netif.o
                0x0000e010                netif_set_addr
 .text.netif_add
                0x0000e07c      0x124 ./lwip/src/core/netif.o
                0x0000e07c                netif_add
 .text.netif_add_noaddr
                0x0000e1a0       0x1a ./lwip/src/core/netif.o
                0x0000e1a0                netif_add_noaddr
 *fill*         0x0000e1ba        0x2 
 .text.netif_set_default
                0x0000e1bc        0xc ./lwip/src/core/netif.o
                0x0000e1bc                netif_set_default
 .text.netif_set_up
                0x0000e1c8       0x3c ./lwip/src/core/netif.o
                0x0000e1c8                netif_set_up
 .text.netif_set_down
                0x0000e204       0x40 ./lwip/src/core/netif.o
                0x0000e204                netif_set_down
 .text.netif_remove
                0x0000e244       0x64 ./lwip/src/core/netif.o
                0x0000e244                netif_remove
 .text.netif_set_link_up
                0x0000e2a8       0x50 ./lwip/src/core/netif.o
                0x0000e2a8                netif_set_link_up
 .text.netif_set_link_down
                0x0000e2f8       0x3c ./lwip/src/core/netif.o
                0x0000e2f8                netif_set_link_down
 .text.netif_set_link_callback
                0x0000e334        0x6 ./lwip/src/core/netif.o
                0x0000e334                netif_set_link_callback
 *fill*         0x0000e33a        0x2 
 .text.netif_get_by_index
                0x0000e33c       0x24 ./lwip/src/core/netif.o
                0x0000e33c                netif_get_by_index
 .text.netif_index_to_name
                0x0000e360       0x2a ./lwip/src/core/netif.o
                0x0000e360                netif_index_to_name
 *fill*         0x0000e38a        0x2 
 .text.netif_find
                0x0000e38c       0x40 ./lwip/src/core/netif.o
                0x0000e38c                netif_find
 .text.netif_name_to_index
                0x0000e3cc       0x16 ./lwip/src/core/netif.o
                0x0000e3cc                netif_name_to_index
 .text.pbuf_init_alloced_pbuf
                0x0000e3e2       0x24 ./lwip/src/core/pbuf.o
 .text.pbuf_skip_const
                0x0000e406       0x16 ./lwip/src/core/pbuf.o
 .text.pbuf_add_header_impl
                0x0000e41c       0x7c ./lwip/src/core/pbuf.o
 .text.pbuf_alloc_reference
                0x0000e498       0x50 ./lwip/src/core/pbuf.o
                0x0000e498                pbuf_alloc_reference
 .text.pbuf_alloced_custom
                0x0000e4e8       0x3a ./lwip/src/core/pbuf.o
                0x0000e4e8                pbuf_alloced_custom
 .text.pbuf_add_header
                0x0000e522        0xa ./lwip/src/core/pbuf.o
                0x0000e522                pbuf_add_header
 .text.pbuf_add_header_force
                0x0000e52c        0xa ./lwip/src/core/pbuf.o
                0x0000e52c                pbuf_add_header_force
 *fill*         0x0000e536        0x2 
 .text.pbuf_remove_header
                0x0000e538       0x6c ./lwip/src/core/pbuf.o
                0x0000e538                pbuf_remove_header
 .text.pbuf_header_impl
                0x0000e5a4       0x14 ./lwip/src/core/pbuf.o
 .text.pbuf_header
                0x0000e5b8        0xa ./lwip/src/core/pbuf.o
                0x0000e5b8                pbuf_header
 .text.pbuf_header_force
                0x0000e5c2        0xa ./lwip/src/core/pbuf.o
                0x0000e5c2                pbuf_header_force
 .text.pbuf_free
                0x0000e5cc       0xd0 ./lwip/src/core/pbuf.o
                0x0000e5cc                pbuf_free
 .text.pbuf_alloc
                0x0000e69c      0x158 ./lwip/src/core/pbuf.o
                0x0000e69c                pbuf_alloc
 .text.pbuf_realloc
                0x0000e7f4       0xa8 ./lwip/src/core/pbuf.o
                0x0000e7f4                pbuf_realloc
 .text.pbuf_free_header
                0x0000e89c       0x30 ./lwip/src/core/pbuf.o
                0x0000e89c                pbuf_free_header
 .text.pbuf_clen
                0x0000e8cc       0x12 ./lwip/src/core/pbuf.o
                0x0000e8cc                pbuf_clen
 *fill*         0x0000e8de        0x2 
 .text.pbuf_ref
                0x0000e8e0       0x38 ./lwip/src/core/pbuf.o
                0x0000e8e0                pbuf_ref
 .text.pbuf_cat
                0x0000e918       0x74 ./lwip/src/core/pbuf.o
                0x0000e918                pbuf_cat
 .text.pbuf_chain
                0x0000e98c       0x10 ./lwip/src/core/pbuf.o
                0x0000e98c                pbuf_chain
 .text.pbuf_dechain
                0x0000e99c       0x74 ./lwip/src/core/pbuf.o
                0x0000e99c                pbuf_dechain
 .text.pbuf_copy
                0x0000ea10      0x120 ./lwip/src/core/pbuf.o
                0x0000ea10                pbuf_copy
 .text.pbuf_copy_partial
                0x0000eb30       0x8c ./lwip/src/core/pbuf.o
                0x0000eb30                pbuf_copy_partial
 .text.pbuf_get_contiguous
                0x0000ebbc       0x90 ./lwip/src/core/pbuf.o
                0x0000ebbc                pbuf_get_contiguous
 .text.pbuf_skip
                0x0000ec4c        0x8 ./lwip/src/core/pbuf.o
                0x0000ec4c                pbuf_skip
 .text.pbuf_take
                0x0000ec54       0xc0 ./lwip/src/core/pbuf.o
                0x0000ec54                pbuf_take
 .text.pbuf_take_at
                0x0000ed14       0x84 ./lwip/src/core/pbuf.o
                0x0000ed14                pbuf_take_at
 .text.pbuf_clone
                0x0000ed98       0x38 ./lwip/src/core/pbuf.o
                0x0000ed98                pbuf_clone
 .text.pbuf_coalesce
                0x0000edd0       0x24 ./lwip/src/core/pbuf.o
                0x0000edd0                pbuf_coalesce
 .text.pbuf_try_get_at
                0x0000edf4       0x2e ./lwip/src/core/pbuf.o
                0x0000edf4                pbuf_try_get_at
 .text.pbuf_get_at
                0x0000ee22       0x12 ./lwip/src/core/pbuf.o
                0x0000ee22                pbuf_get_at
 .text.pbuf_put_at
                0x0000ee34       0x22 ./lwip/src/core/pbuf.o
                0x0000ee34                pbuf_put_at
 .text.pbuf_memcmp
                0x0000ee56       0x64 ./lwip/src/core/pbuf.o
                0x0000ee56                pbuf_memcmp
 .text.pbuf_memfind
                0x0000eeba       0x42 ./lwip/src/core/pbuf.o
                0x0000eeba                pbuf_memfind
 .text.pbuf_strstr
                0x0000eefc       0x4a ./lwip/src/core/pbuf.o
                0x0000eefc                pbuf_strstr
 .text.sys_msleep
                0x0000ef46       0x28 ./lwip/src/core/sys.o
                0x0000ef46                sys_msleep
 *fill*         0x0000ef6e        0x2 
 .text.tcp_new_port
                0x0000ef70       0x68 ./lwip/src/core/tcp.o
 .text.tcp_remove_listener
                0x0000efd8       0x34 ./lwip/src/core/tcp.o
 .text.tcp_listen_closed
                0x0000f00c       0x5c ./lwip/src/core/tcp.o
 .text.tcp_free_listen
                0x0000f068       0x30 ./lwip/src/core/tcp.o
 .text.tcp_close_shutdown_fin
                0x0000f098       0x88 ./lwip/src/core/tcp.o
 .text.tcp_handle_closepend
                0x0000f120       0x2c ./lwip/src/core/tcp.o
 .text.tcp_init
                0x0000f14c       0x18 ./lwip/src/core/tcp.o
                0x0000f14c                tcp_init
 .text.tcp_free
                0x0000f164       0x30 ./lwip/src/core/tcp.o
                0x0000f164                tcp_free
 .text.tcp_bind
                0x0000f194       0xec ./lwip/src/core/tcp.o
                0x0000f194                tcp_bind
 .text.tcp_bind_netif
                0x0000f280       0x12 ./lwip/src/core/tcp.o
                0x0000f280                tcp_bind_netif
 *fill*         0x0000f292        0x2 
 .text.tcp_listen_with_backlog_and_err
                0x0000f294      0x108 ./lwip/src/core/tcp.o
                0x0000f294                tcp_listen_with_backlog_and_err
 .text.tcp_listen_with_backlog
                0x0000f39c        0xa ./lwip/src/core/tcp.o
                0x0000f39c                tcp_listen_with_backlog
 *fill*         0x0000f3a6        0x2 
 .text.tcp_update_rcv_ann_wnd
                0x0000f3a8       0x74 ./lwip/src/core/tcp.o
                0x0000f3a8                tcp_update_rcv_ann_wnd
 .text.tcp_recved
                0x0000f41c       0x7c ./lwip/src/core/tcp.o
                0x0000f41c                tcp_recved
 .text.tcp_txnow
                0x0000f498       0x24 ./lwip/src/core/tcp.o
                0x0000f498                tcp_txnow
 .text.tcp_seg_free
                0x0000f4bc       0x1a ./lwip/src/core/tcp.o
                0x0000f4bc                tcp_seg_free
 .text.tcp_segs_free
                0x0000f4d6       0x14 ./lwip/src/core/tcp.o
                0x0000f4d6                tcp_segs_free
 *fill*         0x0000f4ea        0x2 
 .text.tcp_setprio
                0x0000f4ec       0x24 ./lwip/src/core/tcp.o
                0x0000f4ec                tcp_setprio
 .text.tcp_arg  0x0000f510        0x6 ./lwip/src/core/tcp.o
                0x0000f510                tcp_arg
 *fill*         0x0000f516        0x2 
 .text.tcp_recv
                0x0000f518       0x34 ./lwip/src/core/tcp.o
                0x0000f518                tcp_recv
 .text.tcp_sent
                0x0000f54c       0x30 ./lwip/src/core/tcp.o
                0x0000f54c                tcp_sent
 .text.tcp_err  0x0000f57c       0x34 ./lwip/src/core/tcp.o
                0x0000f57c                tcp_err
 .text.tcp_accept
                0x0000f5b0        0xe ./lwip/src/core/tcp.o
                0x0000f5b0                tcp_accept
 *fill*         0x0000f5be        0x2 
 .text.tcp_poll
                0x0000f5c0       0x48 ./lwip/src/core/tcp.o
                0x0000f5c0                tcp_poll
 .text.tcp_pcb_purge
                0x0000f608       0x58 ./lwip/src/core/tcp.o
                0x0000f608                tcp_pcb_purge
 .text.tcp_slowtmr
                0x0000f660      0x488 ./lwip/src/core/tcp.o
                0x0000f660                tcp_slowtmr
 .text.tcp_pcb_remove
                0x0000fae8       0xbc ./lwip/src/core/tcp.o
                0x0000fae8                tcp_pcb_remove
 .text.tcp_close_shutdown
                0x0000fba4      0x150 ./lwip/src/core/tcp.o
 .text.tcp_close
                0x0000fcf4       0x40 ./lwip/src/core/tcp.o
                0x0000fcf4                tcp_close
 .text.tcp_recv_null
                0x0000fd34       0x48 ./lwip/src/core/tcp.o
                0x0000fd34                tcp_recv_null
 .text.tcp_process_refused_data
                0x0000fd7c       0x90 ./lwip/src/core/tcp.o
                0x0000fd7c                tcp_process_refused_data
 .text.tcp_fasttmr
                0x0000fe0c       0x80 ./lwip/src/core/tcp.o
                0x0000fe0c                tcp_fasttmr
 .text.tcp_tmr  0x0000fe8c       0x24 ./lwip/src/core/tcp.o
                0x0000fe8c                tcp_tmr
 .text.tcp_shutdown
                0x0000feb0       0x7c ./lwip/src/core/tcp.o
                0x0000feb0                tcp_shutdown
 .text.tcp_abandon
                0x0000ff2c      0x104 ./lwip/src/core/tcp.o
                0x0000ff2c                tcp_abandon
 .text.tcp_abort
                0x00010030        0xa ./lwip/src/core/tcp.o
                0x00010030                tcp_abort
 *fill*         0x0001003a        0x2 
 .text.tcp_accept_null
                0x0001003c       0x30 ./lwip/src/core/tcp.o
 .text.tcp_kill_timewait
                0x0001006c       0x34 ./lwip/src/core/tcp.o
 .text.tcp_kill_prio
                0x000100a0       0x50 ./lwip/src/core/tcp.o
 .text.tcp_netif_ip_addr_changed_pcblist
                0x000100f0       0x40 ./lwip/src/core/tcp.o
 .text.tcp_kill_state
                0x00010130       0x64 ./lwip/src/core/tcp.o
 .text.tcp_alloc
                0x00010194       0xc4 ./lwip/src/core/tcp.o
                0x00010194                tcp_alloc
 .text.tcp_new  0x00010258        0xa ./lwip/src/core/tcp.o
                0x00010258                tcp_new
 .text.tcp_new_ip_type
                0x00010262        0xa ./lwip/src/core/tcp.o
                0x00010262                tcp_new_ip_type
 .text.tcp_next_iss
                0x0001026c       0x38 ./lwip/src/core/tcp.o
                0x0001026c                tcp_next_iss
 .text.tcp_eff_send_mss_netif
                0x000102a4       0x40 ./lwip/src/core/tcp.o
                0x000102a4                tcp_eff_send_mss_netif
 .text.tcp_connect
                0x000102e4      0x1a8 ./lwip/src/core/tcp.o
                0x000102e4                tcp_connect
 .text.tcp_netif_ip_addr_changed
                0x0001048c       0x54 ./lwip/src/core/tcp.o
                0x0001048c                tcp_netif_ip_addr_changed
 .text.tcp_debug_state_str
                0x000104e0        0xc ./lwip/src/core/tcp.o
                0x000104e0                tcp_debug_state_str
 .text.tcp_tcp_get_tcp_addrinfo
                0x000104ec       0x3a ./lwip/src/core/tcp.o
                0x000104ec                tcp_tcp_get_tcp_addrinfo
 *fill*         0x00010526        0x2 
 .text.tcp_get_next_optbyte
                0x00010528       0x3c ./lwip/src/core/tcp_in.o
 .text.tcp_parseopt
                0x00010564       0xa8 ./lwip/src/core/tcp_in.o
 .text.tcp_input_delayed_close
                0x0001060c       0x60 ./lwip/src/core/tcp_in.o
 .text.tcp_timewait_input
                0x0001066c       0xb4 ./lwip/src/core/tcp_in.o
 .text.tcp_listen_input
                0x00010720      0x150 ./lwip/src/core/tcp_in.o
 .text.tcp_free_acked_segments
                0x00010870       0xbc ./lwip/src/core/tcp_in.o
 .text.tcp_receive
                0x0001092c      0x56c ./lwip/src/core/tcp_in.o
 .text.tcp_process
                0x00010e98      0x588 ./lwip/src/core/tcp_in.o
 .text.tcp_input
                0x00011420      0x5c0 ./lwip/src/core/tcp_in.o
                0x00011420                tcp_input
 .text.tcp_trigger_input_pcb_close
                0x000119e0       0x10 ./lwip/src/core/tcp_in.o
                0x000119e0                tcp_trigger_input_pcb_close
 .text.tcp_write_checks
                0x000119f0       0xbc ./lwip/src/core/tcp_out.o
 .text.tcp_output_segment_busy
                0x00011aac       0x34 ./lwip/src/core/tcp_out.o
 .text.tcp_output_fill_options
                0x00011ae0       0x4c ./lwip/src/core/tcp_out.o
 .text.tcp_pbuf_prealloc
                0x00011b2c       0xb8 ./lwip/src/core/tcp_out.o
 .text.tcp_create_segment
                0x00011be4       0xe8 ./lwip/src/core/tcp_out.o
 .text.tcp_output_alloc_header_common
                0x00011ccc       0x98 ./lwip/src/core/tcp_out.o
 .text.tcp_output_alloc_header
                0x00011d64       0x58 ./lwip/src/core/tcp_out.o
 .text.tcp_route
                0x00011dbc       0x16 ./lwip/src/core/tcp_out.o
 *fill*         0x00011dd2        0x2 
 .text.tcp_output_segment
                0x00011dd4      0x13c ./lwip/src/core/tcp_out.o
 .text.tcp_output_control_segment
                0x00011f10       0x6c ./lwip/src/core/tcp_out.o
 .text.tcp_write
                0x00011f7c      0x53c ./lwip/src/core/tcp_out.o
                0x00011f7c                tcp_write
 .text.tcp_split_unsent_seg
                0x000124b8      0x1ac ./lwip/src/core/tcp_out.o
                0x000124b8                tcp_split_unsent_seg
 .text.tcp_enqueue_flags
                0x00012664      0x154 ./lwip/src/core/tcp_out.o
                0x00012664                tcp_enqueue_flags
 .text.tcp_send_fin
                0x000127b8       0x64 ./lwip/src/core/tcp_out.o
                0x000127b8                tcp_send_fin
 .text.tcp_rexmit_rto_prepare
                0x0001281c       0x94 ./lwip/src/core/tcp_out.o
                0x0001281c                tcp_rexmit_rto_prepare
 .text.tcp_rexmit
                0x000128b0       0x88 ./lwip/src/core/tcp_out.o
                0x000128b0                tcp_rexmit
 .text.tcp_rexmit_fast
                0x00012938       0x7c ./lwip/src/core/tcp_out.o
                0x00012938                tcp_rexmit_fast
 .text.tcp_rst  0x000129b4       0x90 ./lwip/src/core/tcp_out.o
                0x000129b4                tcp_rst
 .text.tcp_send_empty_ack
                0x00012a44       0x78 ./lwip/src/core/tcp_out.o
                0x00012a44                tcp_send_empty_ack
 .text.tcp_output
                0x00012abc      0x2a0 ./lwip/src/core/tcp_out.o
                0x00012abc                tcp_output
 .text.tcp_rexmit_rto_commit
                0x00012d5c       0x38 ./lwip/src/core/tcp_out.o
                0x00012d5c                tcp_rexmit_rto_commit
 .text.tcp_rexmit_rto
                0x00012d94       0x34 ./lwip/src/core/tcp_out.o
                0x00012d94                tcp_rexmit_rto
 .text.tcp_keepalive
                0x00012dc8       0x5c ./lwip/src/core/tcp_out.o
                0x00012dc8                tcp_keepalive
 .text.tcp_zero_window_probe
                0x00012e24       0xdc ./lwip/src/core/tcp_out.o
                0x00012e24                tcp_zero_window_probe
 .text.sys_timeout_abs
                0x00012f00       0x70 ./lwip/src/core/timeouts.o
 .text.lwip_cyclic_timer
                0x00012f70       0x3c ./lwip/src/core/timeouts.o
 .text.sys_timeout
                0x00012fac       0x3c ./lwip/src/core/timeouts.o
                0x00012fac                sys_timeout
 .text.tcp_timer_needed
                0x00012fe8       0x3c ./lwip/src/core/timeouts.o
                0x00012fe8                tcp_timer_needed
 .text.tcpip_tcp_timer
                0x00013024       0x38 ./lwip/src/core/timeouts.o
 .text.sys_timeouts_init
                0x0001305c       0x28 ./lwip/src/core/timeouts.o
                0x0001305c                sys_timeouts_init
 .text.sys_untimeout
                0x00013084       0x40 ./lwip/src/core/timeouts.o
                0x00013084                sys_untimeout
 .text.sys_check_timeouts
                0x000130c4       0x40 ./lwip/src/core/timeouts.o
                0x000130c4                sys_check_timeouts
 .text.sys_restart_timeouts
                0x00013104       0x28 ./lwip/src/core/timeouts.o
                0x00013104                sys_restart_timeouts
 .text.sys_timeouts_sleeptime
                0x0001312c       0x48 ./lwip/src/core/timeouts.o
                0x0001312c                sys_timeouts_sleeptime
 .text.udp_new_port
                0x00013174       0x4c ./lwip/src/core/udp.o
 .text.udp_input_local_match
                0x000131c0       0xa0 ./lwip/src/core/udp.o
 .text.udp_init
                0x00013260       0x18 ./lwip/src/core/udp.o
                0x00013260                udp_init
 .text.udp_input
                0x00013278      0x190 ./lwip/src/core/udp.o
                0x00013278                udp_input
 .text.udp_bind
                0x00013408       0xd0 ./lwip/src/core/udp.o
                0x00013408                udp_bind
 .text.udp_sendto_if_src
                0x000134d8      0x174 ./lwip/src/core/udp.o
                0x000134d8                udp_sendto_if_src
 .text.udp_sendto_if
                0x0001364c       0xa4 ./lwip/src/core/udp.o
                0x0001364c                udp_sendto_if
 .text.udp_sendto
                0x000136f0       0x8c ./lwip/src/core/udp.o
                0x000136f0                udp_sendto
 .text.udp_send
                0x0001377c       0x48 ./lwip/src/core/udp.o
                0x0001377c                udp_send
 .text.udp_bind_netif
                0x000137c4       0x12 ./lwip/src/core/udp.o
                0x000137c4                udp_bind_netif
 *fill*         0x000137d6        0x2 
 .text.udp_connect
                0x000137d8       0x88 ./lwip/src/core/udp.o
                0x000137d8                udp_connect
 .text.udp_disconnect
                0x00013860       0x34 ./lwip/src/core/udp.o
                0x00013860                udp_disconnect
 .text.udp_recv
                0x00013894       0x28 ./lwip/src/core/udp.o
                0x00013894                udp_recv
 .text.udp_remove
                0x000138bc       0x54 ./lwip/src/core/udp.o
                0x000138bc                udp_remove
 .text.udp_new  0x00013910       0x1c ./lwip/src/core/udp.o
                0x00013910                udp_new
 .text.udp_new_ip_type
                0x0001392c        0x8 ./lwip/src/core/udp.o
                0x0001392c                udp_new_ip_type
 .text.udp_netif_ip_addr_changed
                0x00013934       0x38 ./lwip/src/core/udp.o
                0x00013934                udp_netif_ip_addr_changed
 .text.dhcp_set_state
                0x0001396c       0x10 ./lwip/src/core/ipv4/dhcp.o
 .text.dhcp_option_short
                0x0001397c       0x3c ./lwip/src/core/ipv4/dhcp.o
 .text.dhcp_option
                0x000139b8       0x3c ./lwip/src/core/ipv4/dhcp.o
 .text.dhcp_option_byte
                0x000139f4       0x30 ./lwip/src/core/ipv4/dhcp.o
 .text.dhcp_option_long
                0x00013a24       0x50 ./lwip/src/core/ipv4/dhcp.o
 .text.dhcp_create_msg
                0x00013a74      0x13c ./lwip/src/core/ipv4/dhcp.o
 .text.dhcp_option_trailer
                0x00013bb0       0x32 ./lwip/src/core/ipv4/dhcp.o
 *fill*         0x00013be2        0x2 
 .text.dhcp_rebind
                0x00013be4       0xf0 ./lwip/src/core/ipv4/dhcp.o
 .text.dhcp_t2_timeout
                0x00013cd4       0x30 ./lwip/src/core/ipv4/dhcp.o
 .text.dhcp_reboot
                0x00013d04      0x114 ./lwip/src/core/ipv4/dhcp.o
 .text.dhcp_select
                0x00013e18      0x180 ./lwip/src/core/ipv4/dhcp.o
 .text.dhcp_handle_offer
                0x00013f98       0x30 ./lwip/src/core/ipv4/dhcp.o
 .text.dhcp_discover
                0x00013fc8       0xf4 ./lwip/src/core/ipv4/dhcp.o
 .text.dhcp_decline
                0x000140bc       0x9c ./lwip/src/core/ipv4/dhcp.o
 .text.dhcp_check
                0x00014158       0x2a ./lwip/src/core/ipv4/dhcp.o
 *fill*         0x00014182        0x2 
 .text.dhcp_bind
                0x00014184      0x128 ./lwip/src/core/ipv4/dhcp.o
 .text.dhcp_handle_nak
                0x000142ac       0x24 ./lwip/src/core/ipv4/dhcp.o
 .text.dhcp_dec_pcb_refcount
                0x000142d0       0x48 ./lwip/src/core/ipv4/dhcp.o
 .text.dhcp_inc_pcb_refcount
                0x00014318       0x7c ./lwip/src/core/ipv4/dhcp.o
 .text.dhcp_parse_reply
                0x00014394      0x4d8 ./lwip/src/core/ipv4/dhcp.o
 .text.dhcp_handle_ack
                0x0001486c       0xac ./lwip/src/core/ipv4/dhcp.o
 .text.dhcp_recv
                0x00014918       0xec ./lwip/src/core/ipv4/dhcp.o
 .text.dhcp_set_struct
                0x00014a04       0x60 ./lwip/src/core/ipv4/dhcp.o
                0x00014a04                dhcp_set_struct
 .text.dhcp_cleanup
                0x00014a64       0x30 ./lwip/src/core/ipv4/dhcp.o
                0x00014a64                dhcp_cleanup
 .text.dhcp_inform
                0x00014a94       0xa0 ./lwip/src/core/ipv4/dhcp.o
                0x00014a94                dhcp_inform
 .text.dhcp_network_changed
                0x00014b34       0x54 ./lwip/src/core/ipv4/dhcp.o
                0x00014b34                dhcp_network_changed
 .text.dhcp_arp_reply
                0x00014b88       0x40 ./lwip/src/core/ipv4/dhcp.o
                0x00014b88                dhcp_arp_reply
 .text.dhcp_renew
                0x00014bc8       0xec ./lwip/src/core/ipv4/dhcp.o
                0x00014bc8                dhcp_renew
 .text.dhcp_t1_timeout
                0x00014cb4       0x2c ./lwip/src/core/ipv4/dhcp.o
 .text.dhcp_supplied_address
                0x00014ce0       0x2e ./lwip/src/core/ipv4/dhcp.o
                0x00014ce0                dhcp_supplied_address
 *fill*         0x00014d0e        0x2 
 .text.dhcp_release_and_stop
                0x00014d10       0xc4 ./lwip/src/core/ipv4/dhcp.o
                0x00014d10                dhcp_release_and_stop
 .text.dhcp_start
                0x00014dd4       0xc4 ./lwip/src/core/ipv4/dhcp.o
                0x00014dd4                dhcp_start
 .text.dhcp_coarse_tmr
                0x00014e98       0x64 ./lwip/src/core/ipv4/dhcp.o
                0x00014e98                dhcp_coarse_tmr
 .text.dhcp_timeout
                0x00014efc       0x60 ./lwip/src/core/ipv4/dhcp.o
 .text.dhcp_fine_tmr
                0x00014f5c       0x34 ./lwip/src/core/ipv4/dhcp.o
                0x00014f5c                dhcp_fine_tmr
 .text.dhcp_release
                0x00014f90        0xa ./lwip/src/core/ipv4/dhcp.o
                0x00014f90                dhcp_release
 .text.dhcp_stop
                0x00014f9a        0x8 ./lwip/src/core/ipv4/dhcp.o
                0x00014f9a                dhcp_stop
 *fill*         0x00014fa2        0x2 
 .text.etharp_free_entry
                0x00014fa4       0x34 ./lwip/src/core/ipv4/etharp.o
 .text.etharp_find_entry
                0x00014fd8      0x1c8 ./lwip/src/core/ipv4/etharp.o
 .text.etharp_update_arp_entry
                0x000151a0       0xcc ./lwip/src/core/ipv4/etharp.o
 .text.etharp_raw
                0x0001526c       0xe4 ./lwip/src/core/ipv4/etharp.o
 .text.etharp_request_dst
                0x00015350       0x28 ./lwip/src/core/ipv4/etharp.o
 .text.etharp_cleanup_netif
                0x00015378       0x38 ./lwip/src/core/ipv4/etharp.o
                0x00015378                etharp_cleanup_netif
 .text.etharp_find_addr
                0x000153b0       0x74 ./lwip/src/core/ipv4/etharp.o
                0x000153b0                etharp_find_addr
 .text.etharp_get_entry
                0x00015424       0x98 ./lwip/src/core/ipv4/etharp.o
                0x00015424                etharp_get_entry
 .text.etharp_input
                0x000154bc       0xc8 ./lwip/src/core/ipv4/etharp.o
                0x000154bc                etharp_input
 .text.etharp_request
                0x00015584       0x10 ./lwip/src/core/ipv4/etharp.o
                0x00015584                etharp_request
 .text.etharp_tmr
                0x00015594       0x88 ./lwip/src/core/ipv4/etharp.o
                0x00015594                etharp_tmr
 .text.etharp_output_to_arp_index
                0x0001561c       0xd4 ./lwip/src/core/ipv4/etharp.o
 .text.etharp_query
                0x000156f0      0x1bc ./lwip/src/core/ipv4/etharp.o
                0x000156f0                etharp_query
 .text.etharp_output
                0x000158ac      0x178 ./lwip/src/core/ipv4/etharp.o
                0x000158ac                etharp_output
 .text.icmp_send_response
                0x00015a24       0xb0 ./lwip/src/core/ipv4/icmp.o
 .text.icmp_input
                0x00015ad4      0x158 ./lwip/src/core/ipv4/icmp.o
                0x00015ad4                icmp_input
 .text.icmp_dest_unreach
                0x00015c2c        0xc ./lwip/src/core/ipv4/icmp.o
                0x00015c2c                icmp_dest_unreach
 .text.icmp_time_exceeded
                0x00015c38        0xc ./lwip/src/core/ipv4/icmp.o
                0x00015c38                icmp_time_exceeded
 .text.ip4_input_accept
                0x00015c44       0x38 ./lwip/src/core/ipv4/ip4.o
 .text.ip4_route
                0x00015c7c       0xc0 ./lwip/src/core/ipv4/ip4.o
                0x00015c7c                ip4_route
 .text.ip4_input
                0x00015d3c      0x1b8 ./lwip/src/core/ipv4/ip4.o
                0x00015d3c                ip4_input
 .text.ip4_output_if_src
                0x00015ef4      0x104 ./lwip/src/core/ipv4/ip4.o
                0x00015ef4                ip4_output_if_src
 .text.ip4_output_if
                0x00015ff8       0x2a ./lwip/src/core/ipv4/ip4.o
                0x00015ff8                ip4_output_if
 *fill*         0x00016022        0x2 
 .text.ip4_output
                0x00016024       0x5c ./lwip/src/core/ipv4/ip4.o
                0x00016024                ip4_output
 .text.ip4_addr_isbroadcast_u32
                0x00016080       0x40 ./lwip/src/core/ipv4/ip4_addr.o
                0x00016080                ip4_addr_isbroadcast_u32
 .text.ip4_addr_netmask_valid
                0x000160c0       0x26 ./lwip/src/core/ipv4/ip4_addr.o
                0x000160c0                ip4_addr_netmask_valid
 *fill*         0x000160e6        0x2 
 .text.ip4addr_aton
                0x000160e8      0x188 ./lwip/src/core/ipv4/ip4_addr.o
                0x000160e8                ip4addr_aton
 .text.ipaddr_addr
                0x00016270       0x1a ./lwip/src/core/ipv4/ip4_addr.o
                0x00016270                ipaddr_addr
 *fill*         0x0001628a        0x2 
 .text.ip4addr_ntoa_r
                0x0001628c       0xa8 ./lwip/src/core/ipv4/ip4_addr.o
                0x0001628c                ip4addr_ntoa_r
 .text.ip4addr_ntoa
                0x00016334       0x10 ./lwip/src/core/ipv4/ip4_addr.o
                0x00016334                ip4addr_ntoa
 .text.ip_reass_dequeue_datagram
                0x00016344       0x48 ./lwip/src/core/ipv4/ip4_frag.o
 .text.ip_reass_free_complete_datagram
                0x0001638c       0xf8 ./lwip/src/core/ipv4/ip4_frag.o
 .text.ip_reass_remove_oldest_datagram
                0x00016484       0x7c ./lwip/src/core/ipv4/ip4_frag.o
 .text.ip_frag_free_pbuf_custom_ref
                0x00016500       0x2c ./lwip/src/core/ipv4/ip4_frag.o
 .text.ipfrag_free_pbuf_custom
                0x0001652c       0x34 ./lwip/src/core/ipv4/ip4_frag.o
 .text.ip_reass_chain_frag_into_datagram_and_validate
                0x00016560      0x1b0 ./lwip/src/core/ipv4/ip4_frag.o
 .text.ip_frag_alloc_pbuf_custom_ref
                0x00016710        0xa ./lwip/src/core/ipv4/ip4_frag.o
 *fill*         0x0001671a        0x2 
 .text.ip_reass_enqueue_new_datagram
                0x0001671c       0x64 ./lwip/src/core/ipv4/ip4_frag.o
 .text.ip_reass_tmr
                0x00016780       0x2c ./lwip/src/core/ipv4/ip4_frag.o
                0x00016780                ip_reass_tmr
 .text.ip4_reass
                0x000167ac      0x220 ./lwip/src/core/ipv4/ip4_frag.o
                0x000167ac                ip4_reass
 .text.ip4_frag
                0x000169cc      0x1f0 ./lwip/src/core/ipv4/ip4_frag.o
                0x000169cc                ip4_frag
 .text.ethernet_input
                0x00016bbc       0xa8 ./lwip/src/netif/ethernet.o
                0x00016bbc                ethernet_input
 .text.ethernet_output
                0x00016c64       0x70 ./lwip/src/netif/ethernet.o
                0x00016c64                ethernet_output
 .text.sys_now  0x00016cd4        0x8 ./lwip/system/OS/sys_arch.o
                0x00016cd4                sys_now
 .text.sys_mbox_new
                0x00016cdc       0x24 ./lwip/system/OS/sys_arch.o
                0x00016cdc                sys_mbox_new
 .text.sys_mbox_free
                0x00016d00       0x12 ./lwip/system/OS/sys_arch.o
                0x00016d00                sys_mbox_free
 .text.sys_mbox_post
                0x00016d12       0x18 ./lwip/system/OS/sys_arch.o
                0x00016d12                sys_mbox_post
 .text.sys_mbox_trypost
                0x00016d2a       0x14 ./lwip/system/OS/sys_arch.o
                0x00016d2a                sys_mbox_trypost
 .text.sys_mbox_trypost_fromisr
                0x00016d3e        0x8 ./lwip/system/OS/sys_arch.o
                0x00016d3e                sys_mbox_trypost_fromisr
 .text.sys_arch_mbox_fetch
                0x00016d46       0x5a ./lwip/system/OS/sys_arch.o
                0x00016d46                sys_arch_mbox_fetch
 .text.sys_arch_mbox_tryfetch
                0x00016da0       0x26 ./lwip/system/OS/sys_arch.o
                0x00016da0                sys_arch_mbox_tryfetch
 .text.sys_mbox_valid
                0x00016dc6        0xc ./lwip/system/OS/sys_arch.o
                0x00016dc6                sys_mbox_valid
 .text.sys_mbox_set_invalid
                0x00016dd2        0x6 ./lwip/system/OS/sys_arch.o
                0x00016dd2                sys_mbox_set_invalid
 .text.sys_sem_new
                0x00016dd8       0x32 ./lwip/system/OS/sys_arch.o
                0x00016dd8                sys_sem_new
 .text.sys_arch_sem_wait
                0x00016e0a       0x3c ./lwip/system/OS/sys_arch.o
                0x00016e0a                sys_arch_sem_wait
 .text.sys_sem_signal
                0x00016e46        0xa ./lwip/system/OS/sys_arch.o
                0x00016e46                sys_sem_signal
 .text.sys_sem_free
                0x00016e50        0xa ./lwip/system/OS/sys_arch.o
                0x00016e50                sys_sem_free
 .text.sys_sem_valid
                0x00016e5a        0xc ./lwip/system/OS/sys_arch.o
                0x00016e5a                sys_sem_valid
 .text.sys_sem_set_invalid
                0x00016e66        0x6 ./lwip/system/OS/sys_arch.o
                0x00016e66                sys_sem_set_invalid
 .text.sys_init
                0x00016e6c       0x18 ./lwip/system/OS/sys_arch.o
                0x00016e6c                sys_init
 .text.sys_mutex_new
                0x00016e84       0x22 ./lwip/system/OS/sys_arch.o
                0x00016e84                sys_mutex_new
 .text.sys_mutex_free
                0x00016ea6        0xa ./lwip/system/OS/sys_arch.o
                0x00016ea6                sys_mutex_free
 .text.sys_mutex_lock
                0x00016eb0        0xe ./lwip/system/OS/sys_arch.o
                0x00016eb0                sys_mutex_lock
 .text.sys_mutex_unlock
                0x00016ebe        0xa ./lwip/system/OS/sys_arch.o
                0x00016ebe                sys_mutex_unlock
 .text.sys_thread_new
                0x00016ec8       0x24 ./lwip/system/OS/sys_arch.o
                0x00016ec8                sys_thread_new
 .text.sys_arch_protect
                0x00016eec       0x18 ./lwip/system/OS/sys_arch.o
                0x00016eec                sys_arch_protect
 .text.sys_arch_unprotect
                0x00016f04       0x10 ./lwip/system/OS/sys_arch.o
                0x00016f04                sys_arch_unprotect
 .text.EMACInit
                0x00016f14       0x98 C:/ti/TivaWare_C_Series-2.2.0.295/driverlib/gcc/libdriver.a(emac.o)
                0x00016f14                EMACInit
 .text.EMACReset
                0x00016fac       0x18 C:/ti/TivaWare_C_Series-2.2.0.295/driverlib/gcc/libdriver.a(emac.o)
                0x00016fac                EMACReset
 .text.EMACPHYConfigSet
                0x00016fc4       0x60 C:/ti/TivaWare_C_Series-2.2.0.295/driverlib/gcc/libdriver.a(emac.o)
                0x00016fc4                EMACPHYConfigSet
 .text.EMACConfigSet
                0x00017024       0x30 C:/ti/TivaWare_C_Series-2.2.0.295/driverlib/gcc/libdriver.a(emac.o)
                0x00017024                EMACConfigSet
 .text.EMACConfigGet
                0x00017054       0x34 C:/ti/TivaWare_C_Series-2.2.0.295/driverlib/gcc/libdriver.a(emac.o)
                0x00017054                EMACConfigGet
 .text.EMACAddrSet
                0x00017088       0x38 C:/ti/TivaWare_C_Series-2.2.0.295/driverlib/gcc/libdriver.a(emac.o)
                0x00017088                EMACAddrSet
 .text.EMACAddrGet
                0x000170c0       0x26 C:/ti/TivaWare_C_Series-2.2.0.295/driverlib/gcc/libdriver.a(emac.o)
                0x000170c0                EMACAddrGet
 .text.EMACNumAddrGet
                0x000170e6        0x4 C:/ti/TivaWare_C_Series-2.2.0.295/driverlib/gcc/libdriver.a(emac.o)
                0x000170e6                EMACNumAddrGet
 .text.EMACAddrFilterSet
                0x000170ea       0x1e C:/ti/TivaWare_C_Series-2.2.0.295/driverlib/gcc/libdriver.a(emac.o)
                0x000170ea                EMACAddrFilterSet
 .text.EMACAddrFilterGet
                0x00017108        0xc C:/ti/TivaWare_C_Series-2.2.0.295/driverlib/gcc/libdriver.a(emac.o)
                0x00017108                EMACAddrFilterGet
 .text.EMACFrameFilterSet
                0x00017114       0x10 C:/ti/TivaWare_C_Series-2.2.0.295/driverlib/gcc/libdriver.a(emac.o)
                0x00017114                EMACFrameFilterSet
 .text.EMACFrameFilterGet
                0x00017124        0xc C:/ti/TivaWare_C_Series-2.2.0.295/driverlib/gcc/libdriver.a(emac.o)
                0x00017124                EMACFrameFilterGet
 .text.EMACHashFilterSet
                0x00017130        0x6 C:/ti/TivaWare_C_Series-2.2.0.295/driverlib/gcc/libdriver.a(emac.o)
                0x00017130                EMACHashFilterSet
 .text.EMACHashFilterGet
                0x00017136        0xa C:/ti/TivaWare_C_Series-2.2.0.295/driverlib/gcc/libdriver.a(emac.o)
                0x00017136                EMACHashFilterGet
 .text.EMACHashFilterBitCalculate
                0x00017140       0x24 C:/ti/TivaWare_C_Series-2.2.0.295/driverlib/gcc/libdriver.a(emac.o)
                0x00017140                EMACHashFilterBitCalculate
 .text.EMACRxWatchdogTimerSet
                0x00017164        0x6 C:/ti/TivaWare_C_Series-2.2.0.295/driverlib/gcc/libdriver.a(emac.o)
                0x00017164                EMACRxWatchdogTimerSet
 .text.EMACStatusGet
                0x0001716a        0x4 C:/ti/TivaWare_C_Series-2.2.0.295/driverlib/gcc/libdriver.a(emac.o)
                0x0001716a                EMACStatusGet
 .text.EMACTxDMAPollDemand
                0x0001716e        0x8 C:/ti/TivaWare_C_Series-2.2.0.295/driverlib/gcc/libdriver.a(emac.o)
                0x0001716e                EMACTxDMAPollDemand
 .text.EMACRxDMAPollDemand
                0x00017176        0x8 C:/ti/TivaWare_C_Series-2.2.0.295/driverlib/gcc/libdriver.a(emac.o)
                0x00017176                EMACRxDMAPollDemand
 .text.EMACRxDMADescriptorListSet
                0x0001717e        0x6 C:/ti/TivaWare_C_Series-2.2.0.295/driverlib/gcc/libdriver.a(emac.o)
                0x0001717e                EMACRxDMADescriptorListSet
 .text.EMACRxDMADescriptorListGet
                0x00017184        0x6 C:/ti/TivaWare_C_Series-2.2.0.295/driverlib/gcc/libdriver.a(emac.o)
                0x00017184                EMACRxDMADescriptorListGet
 .text.EMACRxDMACurrentDescriptorGet
                0x0001718a        0x6 C:/ti/TivaWare_C_Series-2.2.0.295/driverlib/gcc/libdriver.a(emac.o)
                0x0001718a                EMACRxDMACurrentDescriptorGet
 .text.EMACRxDMACurrentBufferGet
                0x00017190        0x6 C:/ti/TivaWare_C_Series-2.2.0.295/driverlib/gcc/libdriver.a(emac.o)
                0x00017190                EMACRxDMACurrentBufferGet
 .text.EMACTxDMADescriptorListSet
                0x00017196        0x6 C:/ti/TivaWare_C_Series-2.2.0.295/driverlib/gcc/libdriver.a(emac.o)
                0x00017196                EMACTxDMADescriptorListSet
 .text.EMACTxDMADescriptorListGet
                0x0001719c        0x6 C:/ti/TivaWare_C_Series-2.2.0.295/driverlib/gcc/libdriver.a(emac.o)
                0x0001719c                EMACTxDMADescriptorListGet
 .text.EMACTxDMACurrentDescriptorGet
                0x000171a2        0x6 C:/ti/TivaWare_C_Series-2.2.0.295/driverlib/gcc/libdriver.a(emac.o)
                0x000171a2                EMACTxDMACurrentDescriptorGet
 .text.EMACTxDMACurrentBufferGet
                0x000171a8        0x6 C:/ti/TivaWare_C_Series-2.2.0.295/driverlib/gcc/libdriver.a(emac.o)
                0x000171a8                EMACTxDMACurrentBufferGet
 *fill*         0x000171ae        0x2 
 .text.EMACDMAStateGet
                0x000171b0       0x10 C:/ti/TivaWare_C_Series-2.2.0.295/driverlib/gcc/libdriver.a(emac.o)
                0x000171b0                EMACDMAStateGet
 .text.EMACTxFlush
                0x000171c0       0x1e C:/ti/TivaWare_C_Series-2.2.0.295/driverlib/gcc/libdriver.a(emac.o)
                0x000171c0                EMACTxFlush
 .text.EMACTxEnable
                0x000171de       0x16 C:/ti/TivaWare_C_Series-2.2.0.295/driverlib/gcc/libdriver.a(emac.o)
                0x000171de                EMACTxEnable
 .text.EMACTxDisable
                0x000171f4       0x16 C:/ti/TivaWare_C_Series-2.2.0.295/driverlib/gcc/libdriver.a(emac.o)
                0x000171f4                EMACTxDisable
 .text.EMACRxEnable
                0x0001720a       0x16 C:/ti/TivaWare_C_Series-2.2.0.295/driverlib/gcc/libdriver.a(emac.o)
                0x0001720a                EMACRxEnable
 .text.EMACRxDisable
                0x00017220       0x16 C:/ti/TivaWare_C_Series-2.2.0.295/driverlib/gcc/libdriver.a(emac.o)
                0x00017220                EMACRxDisable
 .text.EMACIntRegister
                0x00017236       0x12 C:/ti/TivaWare_C_Series-2.2.0.295/driverlib/gcc/libdriver.a(emac.o)
                0x00017236                EMACIntRegister
 .text.EMACIntUnregister
                0x00017248       0x12 C:/ti/TivaWare_C_Series-2.2.0.295/driverlib/gcc/libdriver.a(emac.o)
                0x00017248                EMACIntUnregister
 .text.EMACIntEnable
                0x0001725a       0x3a C:/ti/TivaWare_C_Series-2.2.0.295/driverlib/gcc/libdriver.a(emac.o)
                0x0001725a                EMACIntEnable
 .text.EMACIntDisable
                0x00017294       0x3a C:/ti/TivaWare_C_Series-2.2.0.295/driverlib/gcc/libdriver.a(emac.o)
                0x00017294                EMACIntDisable
 .text.EMACIntStatus
                0x000172ce       0x30 C:/ti/TivaWare_C_Series-2.2.0.295/driverlib/gcc/libdriver.a(emac.o)
                0x000172ce                EMACIntStatus
 .text.EMACIntClear
                0x000172fe       0x34 C:/ti/TivaWare_C_Series-2.2.0.295/driverlib/gcc/libdriver.a(emac.o)
                0x000172fe                EMACIntClear
 .text.EMACPHYWrite
                0x00017332       0x2c C:/ti/TivaWare_C_Series-2.2.0.295/driverlib/gcc/libdriver.a(emac.o)
                0x00017332                EMACPHYWrite
 .text.EMACPHYRead
                0x0001735e       0x2e C:/ti/TivaWare_C_Series-2.2.0.295/driverlib/gcc/libdriver.a(emac.o)
                0x0001735e                EMACPHYRead
 .text.EMACPHYExtendedRead
                0x0001738c       0x40 C:/ti/TivaWare_C_Series-2.2.0.295/driverlib/gcc/libdriver.a(emac.o)
                0x0001738c                EMACPHYExtendedRead
 .text.EMACPHYExtendedWrite
                0x000173cc       0x44 C:/ti/TivaWare_C_Series-2.2.0.295/driverlib/gcc/libdriver.a(emac.o)
                0x000173cc                EMACPHYExtendedWrite
 .text.EMACPHYPowerOff
                0x00017410       0x24 C:/ti/TivaWare_C_Series-2.2.0.295/driverlib/gcc/libdriver.a(emac.o)
                0x00017410                EMACPHYPowerOff
 .text.EMACPHYPowerOn
                0x00017434       0x24 C:/ti/TivaWare_C_Series-2.2.0.295/driverlib/gcc/libdriver.a(emac.o)
                0x00017434                EMACPHYPowerOn
 .text.EMACTimestampConfigSet
                0x00017458       0x18 C:/ti/TivaWare_C_Series-2.2.0.295/driverlib/gcc/libdriver.a(emac.o)
                0x00017458                EMACTimestampConfigSet
 .text.EMACTimestampConfigGet
                0x00017470        0xe C:/ti/TivaWare_C_Series-2.2.0.295/driverlib/gcc/libdriver.a(emac.o)
                0x00017470                EMACTimestampConfigGet
 .text.EMACTimestampEnable
                0x0001747e       0x22 C:/ti/TivaWare_C_Series-2.2.0.295/driverlib/gcc/libdriver.a(emac.o)
                0x0001747e                EMACTimestampEnable
 .text.EMACTimestampDisable
                0x000174a0        0xe C:/ti/TivaWare_C_Series-2.2.0.295/driverlib/gcc/libdriver.a(emac.o)
                0x000174a0                EMACTimestampDisable
 .text.EMACTimestampSysTimeSet
                0x000174ae       0x1e C:/ti/TivaWare_C_Series-2.2.0.295/driverlib/gcc/libdriver.a(emac.o)
                0x000174ae                EMACTimestampSysTimeSet
 .text.EMACTimestampSysTimeGet
                0x000174cc       0x18 C:/ti/TivaWare_C_Series-2.2.0.295/driverlib/gcc/libdriver.a(emac.o)
                0x000174cc                EMACTimestampSysTimeGet
 .text.EMACTimestampSysTimeUpdate
                0x000174e4       0x2a C:/ti/TivaWare_C_Series-2.2.0.295/driverlib/gcc/libdriver.a(emac.o)
                0x000174e4                EMACTimestampSysTimeUpdate
 .text.EMACTimestampAddendSet
                0x0001750e       0x1a C:/ti/TivaWare_C_Series-2.2.0.295/driverlib/gcc/libdriver.a(emac.o)
                0x0001750e                EMACTimestampAddendSet
 .text.EMACTimestampTargetSet
                0x00017528       0x14 C:/ti/TivaWare_C_Series-2.2.0.295/driverlib/gcc/libdriver.a(emac.o)
                0x00017528                EMACTimestampTargetSet
 .text.EMACTimestampTargetIntEnable
                0x0001753c        0xe C:/ti/TivaWare_C_Series-2.2.0.295/driverlib/gcc/libdriver.a(emac.o)
                0x0001753c                EMACTimestampTargetIntEnable
 .text.EMACTimestampTargetIntDisable
                0x0001754a        0xe C:/ti/TivaWare_C_Series-2.2.0.295/driverlib/gcc/libdriver.a(emac.o)
                0x0001754a                EMACTimestampTargetIntDisable
 .text.EMACTimestampIntStatus
                0x00017558        0x6 C:/ti/TivaWare_C_Series-2.2.0.295/driverlib/gcc/libdriver.a(emac.o)
                0x00017558                EMACTimestampIntStatus
 .text.EMACTimestampPPSSimpleModeSet
                0x0001755e       0x12 C:/ti/TivaWare_C_Series-2.2.0.295/driverlib/gcc/libdriver.a(emac.o)
                0x0001755e                EMACTimestampPPSSimpleModeSet
 .text.EMACTimestampPPSCommandModeSet
                0x00017570       0x12 C:/ti/TivaWare_C_Series-2.2.0.295/driverlib/gcc/libdriver.a(emac.o)
                0x00017570                EMACTimestampPPSCommandModeSet
 .text.EMACTimestampPPSCommand
                0x00017582       0x12 C:/ti/TivaWare_C_Series-2.2.0.295/driverlib/gcc/libdriver.a(emac.o)
                0x00017582                EMACTimestampPPSCommand
 .text.EMACTimestampPPSPeriodSet
                0x00017594        0xa C:/ti/TivaWare_C_Series-2.2.0.295/driverlib/gcc/libdriver.a(emac.o)
                0x00017594                EMACTimestampPPSPeriodSet
 .text.EMACVLANRxConfigSet
                0x0001759e        0x6 C:/ti/TivaWare_C_Series-2.2.0.295/driverlib/gcc/libdriver.a(emac.o)
                0x0001759e                EMACVLANRxConfigSet
 .text.EMACVLANRxConfigGet
                0x000175a4        0xa C:/ti/TivaWare_C_Series-2.2.0.295/driverlib/gcc/libdriver.a(emac.o)
                0x000175a4                EMACVLANRxConfigGet
 .text.EMACVLANTxConfigSet
                0x000175ae        0x8 C:/ti/TivaWare_C_Series-2.2.0.295/driverlib/gcc/libdriver.a(emac.o)
                0x000175ae                EMACVLANTxConfigSet
 .text.EMACVLANTxConfigGet
                0x000175b6        0xc C:/ti/TivaWare_C_Series-2.2.0.295/driverlib/gcc/libdriver.a(emac.o)
                0x000175b6                EMACVLANTxConfigGet
 .text.EMACVLANHashFilterBitCalculate
                0x000175c2       0x28 C:/ti/TivaWare_C_Series-2.2.0.295/driverlib/gcc/libdriver.a(emac.o)
                0x000175c2                EMACVLANHashFilterBitCalculate
 .text.EMACVLANHashFilterSet
                0x000175ea        0x6 C:/ti/TivaWare_C_Series-2.2.0.295/driverlib/gcc/libdriver.a(emac.o)
                0x000175ea                EMACVLANHashFilterSet
 .text.EMACVLANHashFilterGet
                0x000175f0        0x6 C:/ti/TivaWare_C_Series-2.2.0.295/driverlib/gcc/libdriver.a(emac.o)
                0x000175f0                EMACVLANHashFilterGet
 .text.EMACRemoteWakeUpFrameFilterSet
                0x000175f6       0x16 C:/ti/TivaWare_C_Series-2.2.0.295/driverlib/gcc/libdriver.a(emac.o)
                0x000175f6                EMACRemoteWakeUpFrameFilterSet
 .text.EMACRemoteWakeUpFrameFilterGet
                0x0001760c       0x16 C:/ti/TivaWare_C_Series-2.2.0.295/driverlib/gcc/libdriver.a(emac.o)
                0x0001760c                EMACRemoteWakeUpFrameFilterGet
 .text.EMACPowerManagementControlSet
                0x00017622       0x10 C:/ti/TivaWare_C_Series-2.2.0.295/driverlib/gcc/libdriver.a(emac.o)
                0x00017622                EMACPowerManagementControlSet
 .text.EMACPowerManagementControlGet
                0x00017632        0xa C:/ti/TivaWare_C_Series-2.2.0.295/driverlib/gcc/libdriver.a(emac.o)
                0x00017632                EMACPowerManagementControlGet
 .text.EMACPowerManagementStatusGet
                0x0001763c        0x8 C:/ti/TivaWare_C_Series-2.2.0.295/driverlib/gcc/libdriver.a(emac.o)
                0x0001763c                EMACPowerManagementStatusGet
 .text.EMACWoLEnter
                0x00017644       0x32 C:/ti/TivaWare_C_Series-2.2.0.295/driverlib/gcc/libdriver.a(emac.o)
                0x00017644                EMACWoLEnter
 *fill*         0x00017676        0x2 
 .text.EMACLPIConfig
                0x00017678       0x20 C:/ti/TivaWare_C_Series-2.2.0.295/driverlib/gcc/libdriver.a(emac.o)
                0x00017678                EMACLPIConfig
 .text.EMACLPIEnter
                0x00017698        0xa C:/ti/TivaWare_C_Series-2.2.0.295/driverlib/gcc/libdriver.a(emac.o)
                0x00017698                EMACLPIEnter
 .text.EMACLPIStatus
                0x000176a2        0x6 C:/ti/TivaWare_C_Series-2.2.0.295/driverlib/gcc/libdriver.a(emac.o)
                0x000176a2                EMACLPIStatus
 .text.EMACLPILinkSet
                0x000176a8        0xa C:/ti/TivaWare_C_Series-2.2.0.295/driverlib/gcc/libdriver.a(emac.o)
                0x000176a8                EMACLPILinkSet
 .text.EMACLPILinkClear
                0x000176b2        0xa C:/ti/TivaWare_C_Series-2.2.0.295/driverlib/gcc/libdriver.a(emac.o)
                0x000176b2                EMACLPILinkClear
 .text.EMACPHYMMDWrite
                0x000176bc       0x42 C:/ti/TivaWare_C_Series-2.2.0.295/driverlib/gcc/libdriver.a(emac.o)
                0x000176bc                EMACPHYMMDWrite
 .text.EMACPHYMMDRead
                0x000176fe       0x3c C:/ti/TivaWare_C_Series-2.2.0.295/driverlib/gcc/libdriver.a(emac.o)
                0x000176fe                EMACPHYMMDRead
 *fill*         0x0001773a        0x2 
 .text._GPIOIntNumberGet
                0x0001773c       0x48 C:/ti/TivaWare_C_Series-2.2.0.295/driverlib/gcc/libdriver.a(gpio.o)
 .text.GPIODirModeSet
                0x00017784       0x2e C:/ti/TivaWare_C_Series-2.2.0.295/driverlib/gcc/libdriver.a(gpio.o)
                0x00017784                GPIODirModeSet
 .text.GPIODirModeGet
                0x000177b2       0x24 C:/ti/TivaWare_C_Series-2.2.0.295/driverlib/gcc/libdriver.a(gpio.o)
                0x000177b2                GPIODirModeGet
 .text.GPIOIntTypeSet
                0x000177d6       0x5a C:/ti/TivaWare_C_Series-2.2.0.295/driverlib/gcc/libdriver.a(gpio.o)
                0x000177d6                GPIOIntTypeSet
 .text.GPIOIntTypeGet
                0x00017830       0x48 C:/ti/TivaWare_C_Series-2.2.0.295/driverlib/gcc/libdriver.a(gpio.o)
                0x00017830                GPIOIntTypeGet
 .text.GPIOPadConfigSet
                0x00017878      0x170 C:/ti/TivaWare_C_Series-2.2.0.295/driverlib/gcc/libdriver.a(gpio.o)
                0x00017878                GPIOPadConfigSet
 .text.GPIOPadConfigGet
                0x000179e8       0xe4 C:/ti/TivaWare_C_Series-2.2.0.295/driverlib/gcc/libdriver.a(gpio.o)
                0x000179e8                GPIOPadConfigGet
 .text.GPIOIntEnable
                0x00017acc        0xc C:/ti/TivaWare_C_Series-2.2.0.295/driverlib/gcc/libdriver.a(gpio.o)
                0x00017acc                GPIOIntEnable
 .text.GPIOIntDisable
                0x00017ad8        0xe C:/ti/TivaWare_C_Series-2.2.0.295/driverlib/gcc/libdriver.a(gpio.o)
                0x00017ad8                GPIOIntDisable
 .text.GPIOIntStatus
                0x00017ae6        0xe C:/ti/TivaWare_C_Series-2.2.0.295/driverlib/gcc/libdriver.a(gpio.o)
                0x00017ae6                GPIOIntStatus
 .text.GPIOIntClear
                0x00017af4        0x6 C:/ti/TivaWare_C_Series-2.2.0.295/driverlib/gcc/libdriver.a(gpio.o)
                0x00017af4                GPIOIntClear
 .text.GPIOIntRegister
                0x00017afa       0x1a C:/ti/TivaWare_C_Series-2.2.0.295/driverlib/gcc/libdriver.a(gpio.o)
                0x00017afa                GPIOIntRegister
 .text.GPIOIntUnregister
                0x00017b14       0x16 C:/ti/TivaWare_C_Series-2.2.0.295/driverlib/gcc/libdriver.a(gpio.o)
                0x00017b14                GPIOIntUnregister
 .text.GPIOIntRegisterPin
                0x00017b2a       0x1e C:/ti/TivaWare_C_Series-2.2.0.295/driverlib/gcc/libdriver.a(gpio.o)
                0x00017b2a                GPIOIntRegisterPin
 .text.GPIOIntUnregisterPin
                0x00017b48       0x1a C:/ti/TivaWare_C_Series-2.2.0.295/driverlib/gcc/libdriver.a(gpio.o)
                0x00017b48                GPIOIntUnregisterPin
 .text.GPIOPinRead
                0x00017b62        0x6 C:/ti/TivaWare_C_Series-2.2.0.295/driverlib/gcc/libdriver.a(gpio.o)
                0x00017b62                GPIOPinRead
 .text.GPIOPinWrite
                0x00017b68        0x6 C:/ti/TivaWare_C_Series-2.2.0.295/driverlib/gcc/libdriver.a(gpio.o)
                0x00017b68                GPIOPinWrite
 .text.GPIOPinTypeADC
                0x00017b6e       0x1c C:/ti/TivaWare_C_Series-2.2.0.295/driverlib/gcc/libdriver.a(gpio.o)
                0x00017b6e                GPIOPinTypeADC
 .text.GPIOPinTypeCAN
                0x00017b8a       0x1c C:/ti/TivaWare_C_Series-2.2.0.295/driverlib/gcc/libdriver.a(gpio.o)
                0x00017b8a                GPIOPinTypeCAN
 .text.GPIOPinTypeComparator
                0x00017ba6       0x1c C:/ti/TivaWare_C_Series-2.2.0.295/driverlib/gcc/libdriver.a(gpio.o)
                0x00017ba6                GPIOPinTypeComparator
 .text.GPIOPinTypeComparatorOutput
                0x00017bc2       0x1c C:/ti/TivaWare_C_Series-2.2.0.295/driverlib/gcc/libdriver.a(gpio.o)
                0x00017bc2                GPIOPinTypeComparatorOutput
 .text.GPIOPinTypeDIVSCLK
                0x00017bde       0x1c C:/ti/TivaWare_C_Series-2.2.0.295/driverlib/gcc/libdriver.a(gpio.o)
                0x00017bde                GPIOPinTypeDIVSCLK
 .text.GPIOPinTypeEPI
                0x00017bfa       0x1c C:/ti/TivaWare_C_Series-2.2.0.295/driverlib/gcc/libdriver.a(gpio.o)
                0x00017bfa                GPIOPinTypeEPI
 .text.GPIOPinTypeEthernetLED
                0x00017c16       0x1c C:/ti/TivaWare_C_Series-2.2.0.295/driverlib/gcc/libdriver.a(gpio.o)
                0x00017c16                GPIOPinTypeEthernetLED
 .text.GPIOPinTypeEthernetMII
                0x00017c32       0x1c C:/ti/TivaWare_C_Series-2.2.0.295/driverlib/gcc/libdriver.a(gpio.o)
                0x00017c32                GPIOPinTypeEthernetMII
 .text.GPIOPinTypeGPIOInput
                0x00017c4e       0x1c C:/ti/TivaWare_C_Series-2.2.0.295/driverlib/gcc/libdriver.a(gpio.o)
                0x00017c4e                GPIOPinTypeGPIOInput
 .text.GPIOPinTypeGPIOOutput
                0x00017c6a       0x1c C:/ti/TivaWare_C_Series-2.2.0.295/driverlib/gcc/libdriver.a(gpio.o)
                0x00017c6a                GPIOPinTypeGPIOOutput
 .text.GPIOPinTypeGPIOOutputOD
                0x00017c86       0x1c C:/ti/TivaWare_C_Series-2.2.0.295/driverlib/gcc/libdriver.a(gpio.o)
                0x00017c86                GPIOPinTypeGPIOOutputOD
 .text.GPIOPinTypeHibernateRTCCLK
                0x00017ca2       0x1c C:/ti/TivaWare_C_Series-2.2.0.295/driverlib/gcc/libdriver.a(gpio.o)
                0x00017ca2                GPIOPinTypeHibernateRTCCLK
 .text.GPIOPinTypeI2C
                0x00017cbe       0x1c C:/ti/TivaWare_C_Series-2.2.0.295/driverlib/gcc/libdriver.a(gpio.o)
                0x00017cbe                GPIOPinTypeI2C
 .text.GPIOPinTypeI2CSCL
                0x00017cda       0x1c C:/ti/TivaWare_C_Series-2.2.0.295/driverlib/gcc/libdriver.a(gpio.o)
                0x00017cda                GPIOPinTypeI2CSCL
 .text.GPIOPinTypeLCD
                0x00017cf6       0x1c C:/ti/TivaWare_C_Series-2.2.0.295/driverlib/gcc/libdriver.a(gpio.o)
                0x00017cf6                GPIOPinTypeLCD
 .text.GPIOPinTypeOneWire
                0x00017d12       0x1c C:/ti/TivaWare_C_Series-2.2.0.295/driverlib/gcc/libdriver.a(gpio.o)
                0x00017d12                GPIOPinTypeOneWire
 .text.GPIOPinTypePWM
                0x00017d2e       0x1c C:/ti/TivaWare_C_Series-2.2.0.295/driverlib/gcc/libdriver.a(gpio.o)
                0x00017d2e                GPIOPinTypePWM
 .text.GPIOPinTypeQEI
                0x00017d4a       0x1c C:/ti/TivaWare_C_Series-2.2.0.295/driverlib/gcc/libdriver.a(gpio.o)
                0x00017d4a                GPIOPinTypeQEI
 .text.GPIOPinTypeSSI
                0x00017d66       0x1c C:/ti/TivaWare_C_Series-2.2.0.295/driverlib/gcc/libdriver.a(gpio.o)
                0x00017d66                GPIOPinTypeSSI
 .text.GPIOPinTypeTimer
                0x00017d82       0x1c C:/ti/TivaWare_C_Series-2.2.0.295/driverlib/gcc/libdriver.a(gpio.o)
                0x00017d82                GPIOPinTypeTimer
 .text.GPIOPinTypeTrace
                0x00017d9e       0x1c C:/ti/TivaWare_C_Series-2.2.0.295/driverlib/gcc/libdriver.a(gpio.o)
                0x00017d9e                GPIOPinTypeTrace
 .text.GPIOPinTypeUART
                0x00017dba       0x1c C:/ti/TivaWare_C_Series-2.2.0.295/driverlib/gcc/libdriver.a(gpio.o)
                0x00017dba                GPIOPinTypeUART
 .text.GPIOPinTypeUSBAnalog
                0x00017dd6       0x1c C:/ti/TivaWare_C_Series-2.2.0.295/driverlib/gcc/libdriver.a(gpio.o)
                0x00017dd6                GPIOPinTypeUSBAnalog
 .text.GPIOPinTypeUSBDigital
                0x00017df2       0x1c C:/ti/TivaWare_C_Series-2.2.0.295/driverlib/gcc/libdriver.a(gpio.o)
                0x00017df2                GPIOPinTypeUSBDigital
 .text.GPIOPinTypeWakeHigh
                0x00017e0e       0x1e C:/ti/TivaWare_C_Series-2.2.0.295/driverlib/gcc/libdriver.a(gpio.o)
                0x00017e0e                GPIOPinTypeWakeHigh
 .text.GPIOPinTypeWakeLow
                0x00017e2c       0x1e C:/ti/TivaWare_C_Series-2.2.0.295/driverlib/gcc/libdriver.a(gpio.o)
                0x00017e2c                GPIOPinTypeWakeLow
 .text.GPIOPinWakeStatus
                0x00017e4a        0x6 C:/ti/TivaWare_C_Series-2.2.0.295/driverlib/gcc/libdriver.a(gpio.o)
                0x00017e4a                GPIOPinWakeStatus
 .text.GPIOPinConfigure
                0x00017e50       0x4c C:/ti/TivaWare_C_Series-2.2.0.295/driverlib/gcc/libdriver.a(gpio.o)
                0x00017e50                GPIOPinConfigure
 .text.GPIODMATriggerEnable
                0x00017e9c        0xc C:/ti/TivaWare_C_Series-2.2.0.295/driverlib/gcc/libdriver.a(gpio.o)
                0x00017e9c                GPIODMATriggerEnable
 .text.GPIODMATriggerDisable
                0x00017ea8        0xe C:/ti/TivaWare_C_Series-2.2.0.295/driverlib/gcc/libdriver.a(gpio.o)
                0x00017ea8                GPIODMATriggerDisable
 .text.GPIOADCTriggerEnable
                0x00017eb6        0xc C:/ti/TivaWare_C_Series-2.2.0.295/driverlib/gcc/libdriver.a(gpio.o)
                0x00017eb6                GPIOADCTriggerEnable
 .text.GPIOADCTriggerDisable
                0x00017ec2        0xe C:/ti/TivaWare_C_Series-2.2.0.295/driverlib/gcc/libdriver.a(gpio.o)
                0x00017ec2                GPIOADCTriggerDisable
 .text.GPIOUnlockPin
                0x00017ed0       0x18 C:/ti/TivaWare_C_Series-2.2.0.295/driverlib/gcc/libdriver.a(gpio.o)
                0x00017ed0                GPIOUnlockPin
 .text._IntDefaultHandler
                0x00017ee8        0x2 C:/ti/TivaWare_C_Series-2.2.0.295/driverlib/gcc/libdriver.a(interrupt.o)
 .text.IntMasterEnable
                0x00017eea        0xe C:/ti/TivaWare_C_Series-2.2.0.295/driverlib/gcc/libdriver.a(interrupt.o)
                0x00017eea                IntMasterEnable
 .text.IntMasterDisable
                0x00017ef8        0xe C:/ti/TivaWare_C_Series-2.2.0.295/driverlib/gcc/libdriver.a(interrupt.o)
                0x00017ef8                IntMasterDisable
 *fill*         0x00017f06        0x2 
 .text.IntRegister
                0x00017f08       0x34 C:/ti/TivaWare_C_Series-2.2.0.295/driverlib/gcc/libdriver.a(interrupt.o)
                0x00017f08                IntRegister
 .text.IntUnregister
                0x00017f3c       0x14 C:/ti/TivaWare_C_Series-2.2.0.295/driverlib/gcc/libdriver.a(interrupt.o)
                0x00017f3c                IntUnregister
 .text.IntPriorityGroupingSet
                0x00017f50       0x1c C:/ti/TivaWare_C_Series-2.2.0.295/driverlib/gcc/libdriver.a(interrupt.o)
                0x00017f50                IntPriorityGroupingSet
 .text.IntPriorityGroupingGet
                0x00017f6c       0x24 C:/ti/TivaWare_C_Series-2.2.0.295/driverlib/gcc/libdriver.a(interrupt.o)
                0x00017f6c                IntPriorityGroupingGet
 .text.IntPrioritySet
                0x00017f90       0x2c C:/ti/TivaWare_C_Series-2.2.0.295/driverlib/gcc/libdriver.a(interrupt.o)
                0x00017f90                IntPrioritySet
 .text.IntPriorityGet
                0x00017fbc       0x1c C:/ti/TivaWare_C_Series-2.2.0.295/driverlib/gcc/libdriver.a(interrupt.o)
                0x00017fbc                IntPriorityGet
 .text.IntEnable
                0x00017fd8       0x60 C:/ti/TivaWare_C_Series-2.2.0.295/driverlib/gcc/libdriver.a(interrupt.o)
                0x00017fd8                IntEnable
 .text.IntDisable
                0x00018038       0x60 C:/ti/TivaWare_C_Series-2.2.0.295/driverlib/gcc/libdriver.a(interrupt.o)
                0x00018038                IntDisable
 .text.IntIsEnabled
                0x00018098       0x64 C:/ti/TivaWare_C_Series-2.2.0.295/driverlib/gcc/libdriver.a(interrupt.o)
                0x00018098                IntIsEnabled
 .text.IntPendSet
                0x000180fc       0x50 C:/ti/TivaWare_C_Series-2.2.0.295/driverlib/gcc/libdriver.a(interrupt.o)
                0x000180fc                IntPendSet
 .text.IntPendClear
                0x0001814c       0x40 C:/ti/TivaWare_C_Series-2.2.0.295/driverlib/gcc/libdriver.a(interrupt.o)
                0x0001814c                IntPendClear
 .text.IntPriorityMaskSet
                0x0001818c        0x4 C:/ti/TivaWare_C_Series-2.2.0.295/driverlib/gcc/libdriver.a(interrupt.o)
                0x0001818c                IntPriorityMaskSet
 .text.IntPriorityMaskGet
                0x00018190        0x4 C:/ti/TivaWare_C_Series-2.2.0.295/driverlib/gcc/libdriver.a(interrupt.o)
                0x00018190                IntPriorityMaskGet
 .text.IntTrigger
                0x00018194        0xc C:/ti/TivaWare_C_Series-2.2.0.295/driverlib/gcc/libdriver.a(interrupt.o)
                0x00018194                IntTrigger
 .text.Crc8CCITT
                0x000181a0       0x90 C:/ti/TivaWare_C_Series-2.2.0.295/driverlib/gcc/libdriver.a(sw_crc.o)
                0x000181a0                Crc8CCITT
 .text.Crc16    0x00018230       0xdc C:/ti/TivaWare_C_Series-2.2.0.295/driverlib/gcc/libdriver.a(sw_crc.o)
                0x00018230                Crc16
 .text.Crc16Array
                0x0001830c        0x8 C:/ti/TivaWare_C_Series-2.2.0.295/driverlib/gcc/libdriver.a(sw_crc.o)
                0x0001830c                Crc16Array
 .text.Crc16Array3
                0x00018314       0xb0 C:/ti/TivaWare_C_Series-2.2.0.295/driverlib/gcc/libdriver.a(sw_crc.o)
                0x00018314                Crc16Array3
 .text.Crc32    0x000183c4       0xdc C:/ti/TivaWare_C_Series-2.2.0.295/driverlib/gcc/libdriver.a(sw_crc.o)
                0x000183c4                Crc32
 .text._SysCtlMemTimingGet
                0x000184a0       0x24 C:/ti/TivaWare_C_Series-2.2.0.295/driverlib/gcc/libdriver.a(sysctl.o)
 .text.SysCtlSRAMSizeGet
                0x000184c4       0x10 C:/ti/TivaWare_C_Series-2.2.0.295/driverlib/gcc/libdriver.a(sysctl.o)
                0x000184c4                SysCtlSRAMSizeGet
 .text.SysCtlFlashSizeGet
                0x000184d4       0x3c C:/ti/TivaWare_C_Series-2.2.0.295/driverlib/gcc/libdriver.a(sysctl.o)
                0x000184d4                SysCtlFlashSizeGet
 .text.SysCtlFlashSectorSizeGet
                0x00018510       0x38 C:/ti/TivaWare_C_Series-2.2.0.295/driverlib/gcc/libdriver.a(sysctl.o)
                0x00018510                SysCtlFlashSectorSizeGet
 .text.SysCtlPeripheralPresent
                0x00018548       0x26 C:/ti/TivaWare_C_Series-2.2.0.295/driverlib/gcc/libdriver.a(sysctl.o)
                0x00018548                SysCtlPeripheralPresent
 .text.SysCtlPeripheralReady
                0x0001856e       0x26 C:/ti/TivaWare_C_Series-2.2.0.295/driverlib/gcc/libdriver.a(sysctl.o)
                0x0001856e                SysCtlPeripheralReady
 .text.SysCtlPeripheralPowerOn
                0x00018594       0x22 C:/ti/TivaWare_C_Series-2.2.0.295/driverlib/gcc/libdriver.a(sysctl.o)
                0x00018594                SysCtlPeripheralPowerOn
 .text.SysCtlPeripheralPowerOff
                0x000185b6       0x22 C:/ti/TivaWare_C_Series-2.2.0.295/driverlib/gcc/libdriver.a(sysctl.o)
                0x000185b6                SysCtlPeripheralPowerOff
 .text.SysCtlPeripheralReset
                0x000185d8       0x3a C:/ti/TivaWare_C_Series-2.2.0.295/driverlib/gcc/libdriver.a(sysctl.o)
                0x000185d8                SysCtlPeripheralReset
 .text.SysCtlPeripheralEnable
                0x00018612       0x22 C:/ti/TivaWare_C_Series-2.2.0.295/driverlib/gcc/libdriver.a(sysctl.o)
                0x00018612                SysCtlPeripheralEnable
 .text.SysCtlPeripheralDisable
                0x00018634       0x22 C:/ti/TivaWare_C_Series-2.2.0.295/driverlib/gcc/libdriver.a(sysctl.o)
                0x00018634                SysCtlPeripheralDisable
 .text.SysCtlPeripheralSleepEnable
                0x00018656       0x22 C:/ti/TivaWare_C_Series-2.2.0.295/driverlib/gcc/libdriver.a(sysctl.o)
                0x00018656                SysCtlPeripheralSleepEnable
 .text.SysCtlPeripheralSleepDisable
                0x00018678       0x22 C:/ti/TivaWare_C_Series-2.2.0.295/driverlib/gcc/libdriver.a(sysctl.o)
                0x00018678                SysCtlPeripheralSleepDisable
 .text.SysCtlPeripheralDeepSleepEnable
                0x0001869a       0x22 C:/ti/TivaWare_C_Series-2.2.0.295/driverlib/gcc/libdriver.a(sysctl.o)
                0x0001869a                SysCtlPeripheralDeepSleepEnable
 .text.SysCtlPeripheralDeepSleepDisable
                0x000186bc       0x22 C:/ti/TivaWare_C_Series-2.2.0.295/driverlib/gcc/libdriver.a(sysctl.o)
                0x000186bc                SysCtlPeripheralDeepSleepDisable
 *fill*         0x000186de        0x2 
 .text.SysCtlPeripheralClockGating
                0x000186e0       0x48 C:/ti/TivaWare_C_Series-2.2.0.295/driverlib/gcc/libdriver.a(sysctl.o)
                0x000186e0                SysCtlPeripheralClockGating
 .text.SysCtlIntRegister
                0x00018728       0x14 C:/ti/TivaWare_C_Series-2.2.0.295/driverlib/gcc/libdriver.a(sysctl.o)
                0x00018728                SysCtlIntRegister
 .text.SysCtlIntUnregister
                0x0001873c       0x12 C:/ti/TivaWare_C_Series-2.2.0.295/driverlib/gcc/libdriver.a(sysctl.o)
                0x0001873c                SysCtlIntUnregister
 *fill*         0x0001874e        0x2 
 .text.SysCtlIntEnable
                0x00018750       0x10 C:/ti/TivaWare_C_Series-2.2.0.295/driverlib/gcc/libdriver.a(sysctl.o)
                0x00018750                SysCtlIntEnable
 .text.SysCtlIntDisable
                0x00018760       0x10 C:/ti/TivaWare_C_Series-2.2.0.295/driverlib/gcc/libdriver.a(sysctl.o)
                0x00018760                SysCtlIntDisable
 .text.SysCtlIntClear
                0x00018770        0xc C:/ti/TivaWare_C_Series-2.2.0.295/driverlib/gcc/libdriver.a(sysctl.o)
                0x00018770                SysCtlIntClear
 .text.SysCtlIntStatus
                0x0001877c       0x14 C:/ti/TivaWare_C_Series-2.2.0.295/driverlib/gcc/libdriver.a(sysctl.o)
                0x0001877c                SysCtlIntStatus
 .text.SysCtlLDOSleepSet
                0x00018790        0xc C:/ti/TivaWare_C_Series-2.2.0.295/driverlib/gcc/libdriver.a(sysctl.o)
                0x00018790                SysCtlLDOSleepSet
 .text.SysCtlLDOSleepGet
                0x0001879c        0xc C:/ti/TivaWare_C_Series-2.2.0.295/driverlib/gcc/libdriver.a(sysctl.o)
                0x0001879c                SysCtlLDOSleepGet
 .text.SysCtlLDODeepSleepSet
                0x000187a8        0xc C:/ti/TivaWare_C_Series-2.2.0.295/driverlib/gcc/libdriver.a(sysctl.o)
                0x000187a8                SysCtlLDODeepSleepSet
 .text.SysCtlLDODeepSleepGet
                0x000187b4        0xc C:/ti/TivaWare_C_Series-2.2.0.295/driverlib/gcc/libdriver.a(sysctl.o)
                0x000187b4                SysCtlLDODeepSleepGet
 .text.SysCtlSleepPowerSet
                0x000187c0        0xc C:/ti/TivaWare_C_Series-2.2.0.295/driverlib/gcc/libdriver.a(sysctl.o)
                0x000187c0                SysCtlSleepPowerSet
 .text.SysCtlDeepSleepPowerSet
                0x000187cc        0xc C:/ti/TivaWare_C_Series-2.2.0.295/driverlib/gcc/libdriver.a(sysctl.o)
                0x000187cc                SysCtlDeepSleepPowerSet
 .text.SysCtlReset
                0x000187d8       0x10 C:/ti/TivaWare_C_Series-2.2.0.295/driverlib/gcc/libdriver.a(sysctl.o)
                0x000187d8                SysCtlReset
 .text.SysCtlSleep
                0x000187e8        0x4 C:/ti/TivaWare_C_Series-2.2.0.295/driverlib/gcc/libdriver.a(sysctl.o)
                0x000187e8                SysCtlSleep
 .text.SysCtlDeepSleep
                0x000187ec       0x20 C:/ti/TivaWare_C_Series-2.2.0.295/driverlib/gcc/libdriver.a(sysctl.o)
                0x000187ec                SysCtlDeepSleep
 .text.SysCtlResetCauseGet
                0x0001880c        0xc C:/ti/TivaWare_C_Series-2.2.0.295/driverlib/gcc/libdriver.a(sysctl.o)
                0x0001880c                SysCtlResetCauseGet
 .text.SysCtlResetCauseClear
                0x00018818       0x10 C:/ti/TivaWare_C_Series-2.2.0.295/driverlib/gcc/libdriver.a(sysctl.o)
                0x00018818                SysCtlResetCauseClear
 .text.SysCtlDelay
                0x00018828        0x8 C:/ti/TivaWare_C_Series-2.2.0.295/driverlib/gcc/libdriver.a(sysctl.o)
                0x00018828                SysCtlDelay
 .text.SysCtlMOSCConfigSet
                0x00018830        0xc C:/ti/TivaWare_C_Series-2.2.0.295/driverlib/gcc/libdriver.a(sysctl.o)
                0x00018830                SysCtlMOSCConfigSet
 .text.SysCtlPIOSCCalibrate
                0x0001883c       0x48 C:/ti/TivaWare_C_Series-2.2.0.295/driverlib/gcc/libdriver.a(sysctl.o)
                0x0001883c                SysCtlPIOSCCalibrate
 .text.SysCtlResetBehaviorSet
                0x00018884        0xc C:/ti/TivaWare_C_Series-2.2.0.295/driverlib/gcc/libdriver.a(sysctl.o)
                0x00018884                SysCtlResetBehaviorSet
 .text.SysCtlResetBehaviorGet
                0x00018890        0xc C:/ti/TivaWare_C_Series-2.2.0.295/driverlib/gcc/libdriver.a(sysctl.o)
                0x00018890                SysCtlResetBehaviorGet
 .text.SysCtlClockFreqSet
                0x0001889c      0x248 C:/ti/TivaWare_C_Series-2.2.0.295/driverlib/gcc/libdriver.a(sysctl.o)
                0x0001889c                SysCtlClockFreqSet
 .text.SysCtlClockSet
                0x00018ae4      0x11c C:/ti/TivaWare_C_Series-2.2.0.295/driverlib/gcc/libdriver.a(sysctl.o)
                0x00018ae4                SysCtlClockSet
 .text.SysCtlClockGet
                0x00018c00      0x12c C:/ti/TivaWare_C_Series-2.2.0.295/driverlib/gcc/libdriver.a(sysctl.o)
                0x00018c00                SysCtlClockGet
 .text.SysCtlDeepSleepClockSet
                0x00018d2c        0xc C:/ti/TivaWare_C_Series-2.2.0.295/driverlib/gcc/libdriver.a(sysctl.o)
                0x00018d2c                SysCtlDeepSleepClockSet
 .text.SysCtlDeepSleepClockConfigSet
                0x00018d38       0x60 C:/ti/TivaWare_C_Series-2.2.0.295/driverlib/gcc/libdriver.a(sysctl.o)
                0x00018d38                SysCtlDeepSleepClockConfigSet
 .text.SysCtlPWMClockSet
                0x00018d98       0x14 C:/ti/TivaWare_C_Series-2.2.0.295/driverlib/gcc/libdriver.a(sysctl.o)
                0x00018d98                SysCtlPWMClockSet
 .text.SysCtlPWMClockGet
                0x00018dac       0x18 C:/ti/TivaWare_C_Series-2.2.0.295/driverlib/gcc/libdriver.a(sysctl.o)
                0x00018dac                SysCtlPWMClockGet
 .text.SysCtlGPIOAHBEnable
                0x00018dc4       0x18 C:/ti/TivaWare_C_Series-2.2.0.295/driverlib/gcc/libdriver.a(sysctl.o)
                0x00018dc4                SysCtlGPIOAHBEnable
 .text.SysCtlGPIOAHBDisable
                0x00018ddc       0x1c C:/ti/TivaWare_C_Series-2.2.0.295/driverlib/gcc/libdriver.a(sysctl.o)
                0x00018ddc                SysCtlGPIOAHBDisable
 .text.SysCtlUSBPLLEnable
                0x00018df8       0x10 C:/ti/TivaWare_C_Series-2.2.0.295/driverlib/gcc/libdriver.a(sysctl.o)
                0x00018df8                SysCtlUSBPLLEnable
 .text.SysCtlUSBPLLDisable
                0x00018e08       0x10 C:/ti/TivaWare_C_Series-2.2.0.295/driverlib/gcc/libdriver.a(sysctl.o)
                0x00018e08                SysCtlUSBPLLDisable
 .text.SysCtlVoltageEventConfig
                0x00018e18        0xc C:/ti/TivaWare_C_Series-2.2.0.295/driverlib/gcc/libdriver.a(sysctl.o)
                0x00018e18                SysCtlVoltageEventConfig
 .text.SysCtlVoltageEventStatus
                0x00018e24        0xc C:/ti/TivaWare_C_Series-2.2.0.295/driverlib/gcc/libdriver.a(sysctl.o)
                0x00018e24                SysCtlVoltageEventStatus
 .text.SysCtlVoltageEventClear
                0x00018e30       0x10 C:/ti/TivaWare_C_Series-2.2.0.295/driverlib/gcc/libdriver.a(sysctl.o)
                0x00018e30                SysCtlVoltageEventClear
 .text.SysCtlVCOGet
                0x00018e40       0x78 C:/ti/TivaWare_C_Series-2.2.0.295/driverlib/gcc/libdriver.a(sysctl.o)
                0x00018e40                SysCtlVCOGet
 .text.SysCtlNMIStatus
                0x00018eb8        0xc C:/ti/TivaWare_C_Series-2.2.0.295/driverlib/gcc/libdriver.a(sysctl.o)
                0x00018eb8                SysCtlNMIStatus
 .text.SysCtlNMIClear
                0x00018ec4       0x10 C:/ti/TivaWare_C_Series-2.2.0.295/driverlib/gcc/libdriver.a(sysctl.o)
                0x00018ec4                SysCtlNMIClear
 .text.SysCtlClockOutConfig
                0x00018ed4       0x10 C:/ti/TivaWare_C_Series-2.2.0.295/driverlib/gcc/libdriver.a(sysctl.o)
                0x00018ed4                SysCtlClockOutConfig
 .text.SysCtlAltClkConfig
                0x00018ee4        0xc C:/ti/TivaWare_C_Series-2.2.0.295/driverlib/gcc/libdriver.a(sysctl.o)
                0x00018ee4                SysCtlAltClkConfig
 .text.CPUcpsid
                0x00018ef0        0x8 C:/ti/TivaWare_C_Series-2.2.0.295/driverlib/gcc/libdriver.a(cpu.o)
                0x00018ef0                CPUcpsid
 .text.CPUprimask
                0x00018ef8        0x6 C:/ti/TivaWare_C_Series-2.2.0.295/driverlib/gcc/libdriver.a(cpu.o)
                0x00018ef8                CPUprimask
 .text.CPUcpsie
                0x00018efe        0x8 C:/ti/TivaWare_C_Series-2.2.0.295/driverlib/gcc/libdriver.a(cpu.o)
                0x00018efe                CPUcpsie
 .text.CPUwfi   0x00018f06        0x4 C:/ti/TivaWare_C_Series-2.2.0.295/driverlib/gcc/libdriver.a(cpu.o)
                0x00018f06                CPUwfi
 .text.CPUbasepriSet
                0x00018f0a        0x6 C:/ti/TivaWare_C_Series-2.2.0.295/driverlib/gcc/libdriver.a(cpu.o)
                0x00018f0a                CPUbasepriSet
 .text.CPUbasepriGet
                0x00018f10        0x6 C:/ti/TivaWare_C_Series-2.2.0.295/driverlib/gcc/libdriver.a(cpu.o)
                0x00018f10                CPUbasepriGet
 *fill*         0x00018f16        0x2 
 .text.atoi     0x00018f18        0x8 c:/ti/ccs1011/ccs/tools/compiler/gcc-arm-none-eabi-7-2017-q4-major-win32/bin/../lib/gcc/arm-none-eabi/7.2.1/../../../../arm-none-eabi/lib/thumb/v7e-m/fpv4-sp/hard\libg.a(lib_a-atoi.o)
                0x00018f18                atoi
 .text._atoi_r  0x00018f20        0x8 c:/ti/ccs1011/ccs/tools/compiler/gcc-arm-none-eabi-7-2017-q4-major-win32/bin/../lib/gcc/arm-none-eabi/7.2.1/../../../../arm-none-eabi/lib/thumb/v7e-m/fpv4-sp/hard\libg.a(lib_a-atoi.o)
                0x00018f20                _atoi_r
 .text.exit     0x00018f28       0x20 c:/ti/ccs1011/ccs/tools/compiler/gcc-arm-none-eabi-7-2017-q4-major-win32/bin/../lib/gcc/arm-none-eabi/7.2.1/../../../../arm-none-eabi/lib/thumb/v7e-m/fpv4-sp/hard\libg.a(lib_a-exit.o)
                0x00018f28                exit
 .text.__libc_init_array
                0x00018f48       0x48 c:/ti/ccs1011/ccs/tools/compiler/gcc-arm-none-eabi-7-2017-q4-major-win32/bin/../lib/gcc/arm-none-eabi/7.2.1/../../../../arm-none-eabi/lib/thumb/v7e-m/fpv4-sp/hard\libg.a(lib_a-init.o)
                0x00018f48                __libc_init_array
 .text._setlocale_r
                0x00018f90       0x40 c:/ti/ccs1011/ccs/tools/compiler/gcc-arm-none-eabi-7-2017-q4-major-win32/bin/../lib/gcc/arm-none-eabi/7.2.1/../../../../arm-none-eabi/lib/thumb/v7e-m/fpv4-sp/hard\libg.a(lib_a-locale.o)
                0x00018f90                _setlocale_r
 .text.__locale_mb_cur_max
                0x00018fd0       0x1c c:/ti/ccs1011/ccs/tools/compiler/gcc-arm-none-eabi-7-2017-q4-major-win32/bin/../lib/gcc/arm-none-eabi/7.2.1/../../../../arm-none-eabi/lib/thumb/v7e-m/fpv4-sp/hard\libg.a(lib_a-locale.o)
                0x00018fd0                __locale_mb_cur_max
 .text.__locale_ctype_ptr_l
                0x00018fec        0x8 c:/ti/ccs1011/ccs/tools/compiler/gcc-arm-none-eabi-7-2017-q4-major-win32/bin/../lib/gcc/arm-none-eabi/7.2.1/../../../../arm-none-eabi/lib/thumb/v7e-m/fpv4-sp/hard\libg.a(lib_a-locale.o)
                0x00018fec                __locale_ctype_ptr_l
 .text.__locale_ctype_ptr
                0x00018ff4       0x1c c:/ti/ccs1011/ccs/tools/compiler/gcc-arm-none-eabi-7-2017-q4-major-win32/bin/../lib/gcc/arm-none-eabi/7.2.1/../../../../arm-none-eabi/lib/thumb/v7e-m/fpv4-sp/hard\libg.a(lib_a-locale.o)
                0x00018ff4                __locale_ctype_ptr
 .text.setlocale
                0x00019010       0x10 c:/ti/ccs1011/ccs/tools/compiler/gcc-arm-none-eabi-7-2017-q4-major-win32/bin/../lib/gcc/arm-none-eabi/7.2.1/../../../../arm-none-eabi/lib/thumb/v7e-m/fpv4-sp/hard\libg.a(lib_a-locale.o)
                0x00019010                setlocale
 .text._mbtowc_r
                0x00019020       0x24 c:/ti/ccs1011/ccs/tools/compiler/gcc-arm-none-eabi-7-2017-q4-major-win32/bin/../lib/gcc/arm-none-eabi/7.2.1/../../../../arm-none-eabi/lib/thumb/v7e-m/fpv4-sp/hard\libg.a(lib_a-mbtowc_r.o)
                0x00019020                _mbtowc_r
 .text.__ascii_mbtowc
                0x00019044       0x2c c:/ti/ccs1011/ccs/tools/compiler/gcc-arm-none-eabi-7-2017-q4-major-win32/bin/../lib/gcc/arm-none-eabi/7.2.1/../../../../arm-none-eabi/lib/thumb/v7e-m/fpv4-sp/hard\libg.a(lib_a-mbtowc_r.o)
                0x00019044                __ascii_mbtowc
 .text.memcmp   0x00019070       0x64 c:/ti/ccs1011/ccs/tools/compiler/gcc-arm-none-eabi-7-2017-q4-major-win32/bin/../lib/gcc/arm-none-eabi/7.2.1/../../../../arm-none-eabi/lib/thumb/v7e-m/fpv4-sp/hard\libg.a(lib_a-memcmp.o)
                0x00019070                memcmp
 .text.memmove  0x000190d4       0xc8 c:/ti/ccs1011/ccs/tools/compiler/gcc-arm-none-eabi-7-2017-q4-major-win32/bin/../lib/gcc/arm-none-eabi/7.2.1/../../../../arm-none-eabi/lib/thumb/v7e-m/fpv4-sp/hard\libg.a(lib_a-memmove.o)
                0x000190d4                memmove
 .text.memset   0x0001919c       0x94 c:/ti/ccs1011/ccs/tools/compiler/gcc-arm-none-eabi-7-2017-q4-major-win32/bin/../lib/gcc/arm-none-eabi/7.2.1/../../../../arm-none-eabi/lib/thumb/v7e-m/fpv4-sp/hard\libg.a(lib_a-memset.o)
                0x0001919c                memset
 .text._printf_r
                0x00019230       0x20 c:/ti/ccs1011/ccs/tools/compiler/gcc-arm-none-eabi-7-2017-q4-major-win32/bin/../lib/gcc/arm-none-eabi/7.2.1/../../../../arm-none-eabi/lib/thumb/v7e-m/fpv4-sp/hard\libg.a(lib_a-printf.o)
                0x00019230                _printf_r
 .text.printf   0x00019250       0x28 c:/ti/ccs1011/ccs/tools/compiler/gcc-arm-none-eabi-7-2017-q4-major-win32/bin/../lib/gcc/arm-none-eabi/7.2.1/../../../../arm-none-eabi/lib/thumb/v7e-m/fpv4-sp/hard\libg.a(lib_a-printf.o)
                0x00019250                printf
 .text.srand    0x00019278       0x10 c:/ti/ccs1011/ccs/tools/compiler/gcc-arm-none-eabi-7-2017-q4-major-win32/bin/../lib/gcc/arm-none-eabi/7.2.1/../../../../arm-none-eabi/lib/thumb/v7e-m/fpv4-sp/hard\libg.a(lib_a-rand.o)
                0x00019278                srand
 .text.rand     0x00019288       0x3c c:/ti/ccs1011/ccs/tools/compiler/gcc-arm-none-eabi-7-2017-q4-major-win32/bin/../lib/gcc/arm-none-eabi/7.2.1/../../../../arm-none-eabi/lib/thumb/v7e-m/fpv4-sp/hard\libg.a(lib_a-rand.o)
                0x00019288                rand
 .text.cleanup_glue
                0x000192c4       0x28 c:/ti/ccs1011/ccs/tools/compiler/gcc-arm-none-eabi-7-2017-q4-major-win32/bin/../lib/gcc/arm-none-eabi/7.2.1/../../../../arm-none-eabi/lib/thumb/v7e-m/fpv4-sp/hard\libg.a(lib_a-reent.o)
                0x000192c4                cleanup_glue
 .text._reclaim_reent
                0x000192ec       0x88 c:/ti/ccs1011/ccs/tools/compiler/gcc-arm-none-eabi-7-2017-q4-major-win32/bin/../lib/gcc/arm-none-eabi/7.2.1/../../../../arm-none-eabi/lib/thumb/v7e-m/fpv4-sp/hard\libg.a(lib_a-reent.o)
                0x000192ec                _reclaim_reent
 .text._sprintf_r
                0x00019374       0x3c c:/ti/ccs1011/ccs/tools/compiler/gcc-arm-none-eabi-7-2017-q4-major-win32/bin/../lib/gcc/arm-none-eabi/7.2.1/../../../../arm-none-eabi/lib/thumb/v7e-m/fpv4-sp/hard\libg.a(lib_a-sprintf.o)
                0x00019374                _sprintf_r
 .text.sprintf  0x000193b0       0x44 c:/ti/ccs1011/ccs/tools/compiler/gcc-arm-none-eabi-7-2017-q4-major-win32/bin/../lib/gcc/arm-none-eabi/7.2.1/../../../../arm-none-eabi/lib/thumb/v7e-m/fpv4-sp/hard\libg.a(lib_a-sprintf.o)
                0x000193b0                sprintf
 .text.strchr   0x000193f4       0xe8 c:/ti/ccs1011/ccs/tools/compiler/gcc-arm-none-eabi-7-2017-q4-major-win32/bin/../lib/gcc/arm-none-eabi/7.2.1/../../../../arm-none-eabi/lib/thumb/v7e-m/fpv4-sp/hard\libg.a(lib_a-strchr.o)
                0x000193f4                strchr
 .text.strncmp  0x000194dc       0x98 c:/ti/ccs1011/ccs/tools/compiler/gcc-arm-none-eabi-7-2017-q4-major-win32/bin/../lib/gcc/arm-none-eabi/7.2.1/../../../../arm-none-eabi/lib/thumb/v7e-m/fpv4-sp/hard\libg.a(lib_a-strncmp.o)
                0x000194dc                strncmp
 .text.strncpy  0x00019574       0x64 c:/ti/ccs1011/ccs/tools/compiler/gcc-arm-none-eabi-7-2017-q4-major-win32/bin/../lib/gcc/arm-none-eabi/7.2.1/../../../../arm-none-eabi/lib/thumb/v7e-m/fpv4-sp/hard\libg.a(lib_a-strncpy.o)
                0x00019574                strncpy
 .text.critical_factorization
                0x000195d8       0xb4 c:/ti/ccs1011/ccs/tools/compiler/gcc-arm-none-eabi-7-2017-q4-major-win32/bin/../lib/gcc/arm-none-eabi/7.2.1/../../../../arm-none-eabi/lib/thumb/v7e-m/fpv4-sp/hard\libg.a(lib_a-strstr.o)
 .text.two_way_long_needle
                0x0001968c      0x1f8 c:/ti/ccs1011/ccs/tools/compiler/gcc-arm-none-eabi-7-2017-q4-major-win32/bin/../lib/gcc/arm-none-eabi/7.2.1/../../../../arm-none-eabi/lib/thumb/v7e-m/fpv4-sp/hard\libg.a(lib_a-strstr.o)
 .text.strstr   0x00019884      0x1f8 c:/ti/ccs1011/ccs/tools/compiler/gcc-arm-none-eabi-7-2017-q4-major-win32/bin/../lib/gcc/arm-none-eabi/7.2.1/../../../../arm-none-eabi/lib/thumb/v7e-m/fpv4-sp/hard\libg.a(lib_a-strstr.o)
                0x00019884                strstr
 .text._strtol_l.isra.0
                0x00019a7c      0x124 c:/ti/ccs1011/ccs/tools/compiler/gcc-arm-none-eabi-7-2017-q4-major-win32/bin/../lib/gcc/arm-none-eabi/7.2.1/../../../../arm-none-eabi/lib/thumb/v7e-m/fpv4-sp/hard\libg.a(lib_a-strtol.o)
 .text._strtol_r
                0x00019ba0       0x24 c:/ti/ccs1011/ccs/tools/compiler/gcc-arm-none-eabi-7-2017-q4-major-win32/bin/../lib/gcc/arm-none-eabi/7.2.1/../../../../arm-none-eabi/lib/thumb/v7e-m/fpv4-sp/hard\libg.a(lib_a-strtol.o)
                0x00019ba0                _strtol_r
 .text.strtol_l
                0x00019bc4       0x20 c:/ti/ccs1011/ccs/tools/compiler/gcc-arm-none-eabi-7-2017-q4-major-win32/bin/../lib/gcc/arm-none-eabi/7.2.1/../../../../arm-none-eabi/lib/thumb/v7e-m/fpv4-sp/hard\libg.a(lib_a-strtol.o)
                0x00019bc4                strtol_l
 .text.strtol   0x00019be4       0x2c c:/ti/ccs1011/ccs/tools/compiler/gcc-arm-none-eabi-7-2017-q4-major-win32/bin/../lib/gcc/arm-none-eabi/7.2.1/../../../../arm-none-eabi/lib/thumb/v7e-m/fpv4-sp/hard\libg.a(lib_a-strtol.o)
                0x00019be4                strtol
 .text._svfprintf_r
                0x00019c10     0x144c c:/ti/ccs1011/ccs/tools/compiler/gcc-arm-none-eabi-7-2017-q4-major-win32/bin/../lib/gcc/arm-none-eabi/7.2.1/../../../../arm-none-eabi/lib/thumb/v7e-m/fpv4-sp/hard\libg.a(lib_a-svfprintf.o)
                0x00019c10                _svfprintf_r
 *fill*         0x0001b05c        0x4 
 .text._vfprintf_r
                0x0001b060     0x150c c:/ti/ccs1011/ccs/tools/compiler/gcc-arm-none-eabi-7-2017-q4-major-win32/bin/../lib/gcc/arm-none-eabi/7.2.1/../../../../arm-none-eabi/lib/thumb/v7e-m/fpv4-sp/hard\libg.a(lib_a-vfprintf.o)
                0x0001b060                _vfprintf_r
 .text.vfprintf
                0x0001c56c       0x18 c:/ti/ccs1011/ccs/tools/compiler/gcc-arm-none-eabi-7-2017-q4-major-win32/bin/../lib/gcc/arm-none-eabi/7.2.1/../../../../arm-none-eabi/lib/thumb/v7e-m/fpv4-sp/hard\libg.a(lib_a-vfprintf.o)
                0x0001c56c                vfprintf
 .text.__sbprintf
                0x0001c584       0x84 c:/ti/ccs1011/ccs/tools/compiler/gcc-arm-none-eabi-7-2017-q4-major-win32/bin/../lib/gcc/arm-none-eabi/7.2.1/../../../../arm-none-eabi/lib/thumb/v7e-m/fpv4-sp/hard\libg.a(lib_a-vfprintf.o)
 .text._wctomb_r
                0x0001c608       0x24 c:/ti/ccs1011/ccs/tools/compiler/gcc-arm-none-eabi-7-2017-q4-major-win32/bin/../lib/gcc/arm-none-eabi/7.2.1/../../../../arm-none-eabi/lib/thumb/v7e-m/fpv4-sp/hard\libg.a(lib_a-wctomb_r.o)
                0x0001c608                _wctomb_r
 .text.__ascii_wctomb
                0x0001c62c       0x1c c:/ti/ccs1011/ccs/tools/compiler/gcc-arm-none-eabi-7-2017-q4-major-win32/bin/../lib/gcc/arm-none-eabi/7.2.1/../../../../arm-none-eabi/lib/thumb/v7e-m/fpv4-sp/hard\libg.a(lib_a-wctomb_r.o)
                0x0001c62c                __ascii_wctomb
 .text.__swsetup_r
                0x0001c648       0xcc c:/ti/ccs1011/ccs/tools/compiler/gcc-arm-none-eabi-7-2017-q4-major-win32/bin/../lib/gcc/arm-none-eabi/7.2.1/../../../../arm-none-eabi/lib/thumb/v7e-m/fpv4-sp/hard\libg.a(lib_a-wsetup.o)
                0x0001c648                __swsetup_r
 .text.startup.register_fini
                0x0001c714       0x14 c:/ti/ccs1011/ccs/tools/compiler/gcc-arm-none-eabi-7-2017-q4-major-win32/bin/../lib/gcc/arm-none-eabi/7.2.1/../../../../arm-none-eabi/lib/thumb/v7e-m/fpv4-sp/hard\libg.a(lib_a-__call_atexit.o)
 .text.__call_exitprocs
                0x0001c728       0xe8 c:/ti/ccs1011/ccs/tools/compiler/gcc-arm-none-eabi-7-2017-q4-major-win32/bin/../lib/gcc/arm-none-eabi/7.2.1/../../../../arm-none-eabi/lib/thumb/v7e-m/fpv4-sp/hard\libg.a(lib_a-__call_atexit.o)
                0x0001c728                __call_exitprocs
 .text.atexit   0x0001c810        0xc c:/ti/ccs1011/ccs/tools/compiler/gcc-arm-none-eabi-7-2017-q4-major-win32/bin/../lib/gcc/arm-none-eabi/7.2.1/../../../../arm-none-eabi/lib/thumb/v7e-m/fpv4-sp/hard\libg.a(lib_a-atexit.o)
                0x0001c810                atexit
 .text.quorem   0x0001c81c      0x124 c:/ti/ccs1011/ccs/tools/compiler/gcc-arm-none-eabi-7-2017-q4-major-win32/bin/../lib/gcc/arm-none-eabi/7.2.1/../../../../arm-none-eabi/lib/thumb/v7e-m/fpv4-sp/hard\libg.a(lib_a-dtoa.o)
 .text._dtoa_r  0x0001c940      0xe28 c:/ti/ccs1011/ccs/tools/compiler/gcc-arm-none-eabi-7-2017-q4-major-win32/bin/../lib/gcc/arm-none-eabi/7.2.1/../../../../arm-none-eabi/lib/thumb/v7e-m/fpv4-sp/hard\libg.a(lib_a-dtoa.o)
                0x0001c940                _dtoa_r
 .text.__sflush_r
                0x0001d768      0x154 c:/ti/ccs1011/ccs/tools/compiler/gcc-arm-none-eabi-7-2017-q4-major-win32/bin/../lib/gcc/arm-none-eabi/7.2.1/../../../../arm-none-eabi/lib/thumb/v7e-m/fpv4-sp/hard\libg.a(lib_a-fflush.o)
                0x0001d768                __sflush_r
 .text._fflush_r
                0x0001d8bc       0x5c c:/ti/ccs1011/ccs/tools/compiler/gcc-arm-none-eabi-7-2017-q4-major-win32/bin/../lib/gcc/arm-none-eabi/7.2.1/../../../../arm-none-eabi/lib/thumb/v7e-m/fpv4-sp/hard\libg.a(lib_a-fflush.o)
                0x0001d8bc                _fflush_r
 .text.fflush   0x0001d918       0x24 c:/ti/ccs1011/ccs/tools/compiler/gcc-arm-none-eabi-7-2017-q4-major-win32/bin/../lib/gcc/arm-none-eabi/7.2.1/../../../../arm-none-eabi/lib/thumb/v7e-m/fpv4-sp/hard\libg.a(lib_a-fflush.o)
                0x0001d918                fflush
 .text.std      0x0001d93c       0x50 c:/ti/ccs1011/ccs/tools/compiler/gcc-arm-none-eabi-7-2017-q4-major-win32/bin/../lib/gcc/arm-none-eabi/7.2.1/../../../../arm-none-eabi/lib/thumb/v7e-m/fpv4-sp/hard\libg.a(lib_a-findfp.o)
 .text._cleanup_r
                0x0001d98c        0xc c:/ti/ccs1011/ccs/tools/compiler/gcc-arm-none-eabi-7-2017-q4-major-win32/bin/../lib/gcc/arm-none-eabi/7.2.1/../../../../arm-none-eabi/lib/thumb/v7e-m/fpv4-sp/hard\libg.a(lib_a-findfp.o)
                0x0001d98c                _cleanup_r
 .text.__fp_lock
                0x0001d998       0x1c c:/ti/ccs1011/ccs/tools/compiler/gcc-arm-none-eabi-7-2017-q4-major-win32/bin/../lib/gcc/arm-none-eabi/7.2.1/../../../../arm-none-eabi/lib/thumb/v7e-m/fpv4-sp/hard\libg.a(lib_a-findfp.o)
 .text.__fp_unlock
                0x0001d9b4       0x1c c:/ti/ccs1011/ccs/tools/compiler/gcc-arm-none-eabi-7-2017-q4-major-win32/bin/../lib/gcc/arm-none-eabi/7.2.1/../../../../arm-none-eabi/lib/thumb/v7e-m/fpv4-sp/hard\libg.a(lib_a-findfp.o)
 .text.__sfmoreglue
                0x0001d9d0       0x30 c:/ti/ccs1011/ccs/tools/compiler/gcc-arm-none-eabi-7-2017-q4-major-win32/bin/../lib/gcc/arm-none-eabi/7.2.1/../../../../arm-none-eabi/lib/thumb/v7e-m/fpv4-sp/hard\libg.a(lib_a-findfp.o)
                0x0001d9d0                __sfmoreglue
 .text._cleanup
                0x0001da00       0x14 c:/ti/ccs1011/ccs/tools/compiler/gcc-arm-none-eabi-7-2017-q4-major-win32/bin/../lib/gcc/arm-none-eabi/7.2.1/../../../../arm-none-eabi/lib/thumb/v7e-m/fpv4-sp/hard\libg.a(lib_a-findfp.o)
                0x0001da00                _cleanup
 .text.__sinit  0x0001da14       0x58 c:/ti/ccs1011/ccs/tools/compiler/gcc-arm-none-eabi-7-2017-q4-major-win32/bin/../lib/gcc/arm-none-eabi/7.2.1/../../../../arm-none-eabi/lib/thumb/v7e-m/fpv4-sp/hard\libg.a(lib_a-findfp.o)
                0x0001da14                __sinit
 .text.__sfp    0x0001da6c       0xa4 c:/ti/ccs1011/ccs/tools/compiler/gcc-arm-none-eabi-7-2017-q4-major-win32/bin/../lib/gcc/arm-none-eabi/7.2.1/../../../../arm-none-eabi/lib/thumb/v7e-m/fpv4-sp/hard\libg.a(lib_a-findfp.o)
                0x0001da6c                __sfp
 .text.__sfp_lock_acquire
                0x0001db10        0xc c:/ti/ccs1011/ccs/tools/compiler/gcc-arm-none-eabi-7-2017-q4-major-win32/bin/../lib/gcc/arm-none-eabi/7.2.1/../../../../arm-none-eabi/lib/thumb/v7e-m/fpv4-sp/hard\libg.a(lib_a-findfp.o)
                0x0001db10                __sfp_lock_acquire
 .text.__sfp_lock_release
                0x0001db1c        0xc c:/ti/ccs1011/ccs/tools/compiler/gcc-arm-none-eabi-7-2017-q4-major-win32/bin/../lib/gcc/arm-none-eabi/7.2.1/../../../../arm-none-eabi/lib/thumb/v7e-m/fpv4-sp/hard\libg.a(lib_a-findfp.o)
                0x0001db1c                __sfp_lock_release
 .text.__sinit_lock_acquire
                0x0001db28        0xc c:/ti/ccs1011/ccs/tools/compiler/gcc-arm-none-eabi-7-2017-q4-major-win32/bin/../lib/gcc/arm-none-eabi/7.2.1/../../../../arm-none-eabi/lib/thumb/v7e-m/fpv4-sp/hard\libg.a(lib_a-findfp.o)
                0x0001db28                __sinit_lock_acquire
 .text.__sinit_lock_release
                0x0001db34        0xc c:/ti/ccs1011/ccs/tools/compiler/gcc-arm-none-eabi-7-2017-q4-major-win32/bin/../lib/gcc/arm-none-eabi/7.2.1/../../../../arm-none-eabi/lib/thumb/v7e-m/fpv4-sp/hard\libg.a(lib_a-findfp.o)
                0x0001db34                __sinit_lock_release
 .text.__fp_lock_all
                0x0001db40       0x24 c:/ti/ccs1011/ccs/tools/compiler/gcc-arm-none-eabi-7-2017-q4-major-win32/bin/../lib/gcc/arm-none-eabi/7.2.1/../../../../arm-none-eabi/lib/thumb/v7e-m/fpv4-sp/hard\libg.a(lib_a-findfp.o)
                0x0001db40                __fp_lock_all
 .text.__fp_unlock_all
                0x0001db64       0x24 c:/ti/ccs1011/ccs/tools/compiler/gcc-arm-none-eabi-7-2017-q4-major-win32/bin/../lib/gcc/arm-none-eabi/7.2.1/../../../../arm-none-eabi/lib/thumb/v7e-m/fpv4-sp/hard\libg.a(lib_a-findfp.o)
                0x0001db64                __fp_unlock_all
 .text.__libc_fini_array
                0x0001db88       0x34 c:/ti/ccs1011/ccs/tools/compiler/gcc-arm-none-eabi-7-2017-q4-major-win32/bin/../lib/gcc/arm-none-eabi/7.2.1/../../../../arm-none-eabi/lib/thumb/v7e-m/fpv4-sp/hard\libg.a(lib_a-fini.o)
                0x0001db88                __libc_fini_array
 .text._malloc_trim_r
                0x0001dbbc       0xa0 c:/ti/ccs1011/ccs/tools/compiler/gcc-arm-none-eabi-7-2017-q4-major-win32/bin/../lib/gcc/arm-none-eabi/7.2.1/../../../../arm-none-eabi/lib/thumb/v7e-m/fpv4-sp/hard\libg.a(lib_a-freer.o)
                0x0001dbbc                _malloc_trim_r
 .text._free_r  0x0001dc5c      0x1e8 c:/ti/ccs1011/ccs/tools/compiler/gcc-arm-none-eabi-7-2017-q4-major-win32/bin/../lib/gcc/arm-none-eabi/7.2.1/../../../../arm-none-eabi/lib/thumb/v7e-m/fpv4-sp/hard\libg.a(lib_a-freer.o)
                0x0001dc5c                _free_r
 .text._fwalk   0x0001de44       0x4c c:/ti/ccs1011/ccs/tools/compiler/gcc-arm-none-eabi-7-2017-q4-major-win32/bin/../lib/gcc/arm-none-eabi/7.2.1/../../../../arm-none-eabi/lib/thumb/v7e-m/fpv4-sp/hard\libg.a(lib_a-fwalk.o)
                0x0001de44                _fwalk
 .text._fwalk_reent
                0x0001de90       0x54 c:/ti/ccs1011/ccs/tools/compiler/gcc-arm-none-eabi-7-2017-q4-major-win32/bin/../lib/gcc/arm-none-eabi/7.2.1/../../../../arm-none-eabi/lib/thumb/v7e-m/fpv4-sp/hard\libg.a(lib_a-fwalk.o)
                0x0001de90                _fwalk_reent
 .text.__localeconv_l
                0x0001dee4        0x4 c:/ti/ccs1011/ccs/tools/compiler/gcc-arm-none-eabi-7-2017-q4-major-win32/bin/../lib/gcc/arm-none-eabi/7.2.1/../../../../arm-none-eabi/lib/thumb/v7e-m/fpv4-sp/hard\libg.a(lib_a-localeconv.o)
                0x0001dee4                __localeconv_l
 .text._localeconv_r
                0x0001dee8       0x1c c:/ti/ccs1011/ccs/tools/compiler/gcc-arm-none-eabi-7-2017-q4-major-win32/bin/../lib/gcc/arm-none-eabi/7.2.1/../../../../arm-none-eabi/lib/thumb/v7e-m/fpv4-sp/hard\libg.a(lib_a-localeconv.o)
                0x0001dee8                _localeconv_r
 .text.localeconv
                0x0001df04       0x1c c:/ti/ccs1011/ccs/tools/compiler/gcc-arm-none-eabi-7-2017-q4-major-win32/bin/../lib/gcc/arm-none-eabi/7.2.1/../../../../arm-none-eabi/lib/thumb/v7e-m/fpv4-sp/hard\libg.a(lib_a-localeconv.o)
                0x0001df04                localeconv
 .text.__retarget_lock_init
                0x0001df20        0x4 c:/ti/ccs1011/ccs/tools/compiler/gcc-arm-none-eabi-7-2017-q4-major-win32/bin/../lib/gcc/arm-none-eabi/7.2.1/../../../../arm-none-eabi/lib/thumb/v7e-m/fpv4-sp/hard\libg.a(lib_a-lock.o)
                0x0001df20                __retarget_lock_init
 .text.__retarget_lock_init_recursive
                0x0001df24        0x4 c:/ti/ccs1011/ccs/tools/compiler/gcc-arm-none-eabi-7-2017-q4-major-win32/bin/../lib/gcc/arm-none-eabi/7.2.1/../../../../arm-none-eabi/lib/thumb/v7e-m/fpv4-sp/hard\libg.a(lib_a-lock.o)
                0x0001df24                __retarget_lock_init_recursive
 .text.__retarget_lock_close
                0x0001df28        0x4 c:/ti/ccs1011/ccs/tools/compiler/gcc-arm-none-eabi-7-2017-q4-major-win32/bin/../lib/gcc/arm-none-eabi/7.2.1/../../../../arm-none-eabi/lib/thumb/v7e-m/fpv4-sp/hard\libg.a(lib_a-lock.o)
                0x0001df28                __retarget_lock_close
 .text.__retarget_lock_close_recursive
                0x0001df2c        0x4 c:/ti/ccs1011/ccs/tools/compiler/gcc-arm-none-eabi-7-2017-q4-major-win32/bin/../lib/gcc/arm-none-eabi/7.2.1/../../../../arm-none-eabi/lib/thumb/v7e-m/fpv4-sp/hard\libg.a(lib_a-lock.o)
                0x0001df2c                __retarget_lock_close_recursive
 .text.__retarget_lock_acquire
                0x0001df30        0x4 c:/ti/ccs1011/ccs/tools/compiler/gcc-arm-none-eabi-7-2017-q4-major-win32/bin/../lib/gcc/arm-none-eabi/7.2.1/../../../../arm-none-eabi/lib/thumb/v7e-m/fpv4-sp/hard\libg.a(lib_a-lock.o)
                0x0001df30                __retarget_lock_acquire
 .text.__retarget_lock_acquire_recursive
                0x0001df34        0x4 c:/ti/ccs1011/ccs/tools/compiler/gcc-arm-none-eabi-7-2017-q4-major-win32/bin/../lib/gcc/arm-none-eabi/7.2.1/../../../../arm-none-eabi/lib/thumb/v7e-m/fpv4-sp/hard\libg.a(lib_a-lock.o)
                0x0001df34                __retarget_lock_acquire_recursive
 .text.__retarget_lock_try_acquire
                0x0001df38        0x4 c:/ti/ccs1011/ccs/tools/compiler/gcc-arm-none-eabi-7-2017-q4-major-win32/bin/../lib/gcc/arm-none-eabi/7.2.1/../../../../arm-none-eabi/lib/thumb/v7e-m/fpv4-sp/hard\libg.a(lib_a-lock.o)
                0x0001df38                __retarget_lock_try_acquire
 .text.__retarget_lock_try_acquire_recursive
                0x0001df3c        0x4 c:/ti/ccs1011/ccs/tools/compiler/gcc-arm-none-eabi-7-2017-q4-major-win32/bin/../lib/gcc/arm-none-eabi/7.2.1/../../../../arm-none-eabi/lib/thumb/v7e-m/fpv4-sp/hard\libg.a(lib_a-lock.o)
                0x0001df3c                __retarget_lock_try_acquire_recursive
 .text.__retarget_lock_release
                0x0001df40        0x4 c:/ti/ccs1011/ccs/tools/compiler/gcc-arm-none-eabi-7-2017-q4-major-win32/bin/../lib/gcc/arm-none-eabi/7.2.1/../../../../arm-none-eabi/lib/thumb/v7e-m/fpv4-sp/hard\libg.a(lib_a-lock.o)
                0x0001df40                __retarget_lock_release
 .text.__retarget_lock_release_recursive
                0x0001df44        0x4 c:/ti/ccs1011/ccs/tools/compiler/gcc-arm-none-eabi-7-2017-q4-major-win32/bin/../lib/gcc/arm-none-eabi/7.2.1/../../../../arm-none-eabi/lib/thumb/v7e-m/fpv4-sp/hard\libg.a(lib_a-lock.o)
                0x0001df44                __retarget_lock_release_recursive
 .text.__swhatbuf_r
                0x0001df48       0x5c c:/ti/ccs1011/ccs/tools/compiler/gcc-arm-none-eabi-7-2017-q4-major-win32/bin/../lib/gcc/arm-none-eabi/7.2.1/../../../../arm-none-eabi/lib/thumb/v7e-m/fpv4-sp/hard\libg.a(lib_a-makebuf.o)
                0x0001df48                __swhatbuf_r
 .text.__smakebuf_r
                0x0001dfa4       0x94 c:/ti/ccs1011/ccs/tools/compiler/gcc-arm-none-eabi-7-2017-q4-major-win32/bin/../lib/gcc/arm-none-eabi/7.2.1/../../../../arm-none-eabi/lib/thumb/v7e-m/fpv4-sp/hard\libg.a(lib_a-makebuf.o)
                0x0001dfa4                __smakebuf_r
 .text._malloc_r
                0x0001e038      0x548 c:/ti/ccs1011/ccs/tools/compiler/gcc-arm-none-eabi-7-2017-q4-major-win32/bin/../lib/gcc/arm-none-eabi/7.2.1/../../../../arm-none-eabi/lib/thumb/v7e-m/fpv4-sp/hard\libg.a(lib_a-mallocr.o)
                0x0001e038                _malloc_r
 .text.__malloc_lock
                0x0001e580        0xc c:/ti/ccs1011/ccs/tools/compiler/gcc-arm-none-eabi-7-2017-q4-major-win32/bin/../lib/gcc/arm-none-eabi/7.2.1/../../../../arm-none-eabi/lib/thumb/v7e-m/fpv4-sp/hard\libg.a(lib_a-mlock.o)
                0x0001e580                __malloc_lock
 .text.__malloc_unlock
                0x0001e58c        0xc c:/ti/ccs1011/ccs/tools/compiler/gcc-arm-none-eabi-7-2017-q4-major-win32/bin/../lib/gcc/arm-none-eabi/7.2.1/../../../../arm-none-eabi/lib/thumb/v7e-m/fpv4-sp/hard\libg.a(lib_a-mlock.o)
                0x0001e58c                __malloc_unlock
 .text._Balloc  0x0001e598       0x4c c:/ti/ccs1011/ccs/tools/compiler/gcc-arm-none-eabi-7-2017-q4-major-win32/bin/../lib/gcc/arm-none-eabi/7.2.1/../../../../arm-none-eabi/lib/thumb/v7e-m/fpv4-sp/hard\libg.a(lib_a-mprec.o)
                0x0001e598                _Balloc
 .text._Bfree   0x0001e5e4       0x14 c:/ti/ccs1011/ccs/tools/compiler/gcc-arm-none-eabi-7-2017-q4-major-win32/bin/../lib/gcc/arm-none-eabi/7.2.1/../../../../arm-none-eabi/lib/thumb/v7e-m/fpv4-sp/hard\libg.a(lib_a-mprec.o)
                0x0001e5e4                _Bfree
 .text.__multadd
                0x0001e5f8       0x80 c:/ti/ccs1011/ccs/tools/compiler/gcc-arm-none-eabi-7-2017-q4-major-win32/bin/../lib/gcc/arm-none-eabi/7.2.1/../../../../arm-none-eabi/lib/thumb/v7e-m/fpv4-sp/hard\libg.a(lib_a-mprec.o)
                0x0001e5f8                __multadd
 .text.__s2b    0x0001e678       0x98 c:/ti/ccs1011/ccs/tools/compiler/gcc-arm-none-eabi-7-2017-q4-major-win32/bin/../lib/gcc/arm-none-eabi/7.2.1/../../../../arm-none-eabi/lib/thumb/v7e-m/fpv4-sp/hard\libg.a(lib_a-mprec.o)
                0x0001e678                __s2b
 .text.__hi0bits
                0x0001e710       0x40 c:/ti/ccs1011/ccs/tools/compiler/gcc-arm-none-eabi-7-2017-q4-major-win32/bin/../lib/gcc/arm-none-eabi/7.2.1/../../../../arm-none-eabi/lib/thumb/v7e-m/fpv4-sp/hard\libg.a(lib_a-mprec.o)
                0x0001e710                __hi0bits
 .text.__lo0bits
                0x0001e750       0x60 c:/ti/ccs1011/ccs/tools/compiler/gcc-arm-none-eabi-7-2017-q4-major-win32/bin/../lib/gcc/arm-none-eabi/7.2.1/../../../../arm-none-eabi/lib/thumb/v7e-m/fpv4-sp/hard\libg.a(lib_a-mprec.o)
                0x0001e750                __lo0bits
 .text.__i2b    0x0001e7b0       0x14 c:/ti/ccs1011/ccs/tools/compiler/gcc-arm-none-eabi-7-2017-q4-major-win32/bin/../lib/gcc/arm-none-eabi/7.2.1/../../../../arm-none-eabi/lib/thumb/v7e-m/fpv4-sp/hard\libg.a(lib_a-mprec.o)
                0x0001e7b0                __i2b
 .text.__multiply
                0x0001e7c4      0x14c c:/ti/ccs1011/ccs/tools/compiler/gcc-arm-none-eabi-7-2017-q4-major-win32/bin/../lib/gcc/arm-none-eabi/7.2.1/../../../../arm-none-eabi/lib/thumb/v7e-m/fpv4-sp/hard\libg.a(lib_a-mprec.o)
                0x0001e7c4                __multiply
 .text.__pow5mult
                0x0001e910       0xa0 c:/ti/ccs1011/ccs/tools/compiler/gcc-arm-none-eabi-7-2017-q4-major-win32/bin/../lib/gcc/arm-none-eabi/7.2.1/../../../../arm-none-eabi/lib/thumb/v7e-m/fpv4-sp/hard\libg.a(lib_a-mprec.o)
                0x0001e910                __pow5mult
 .text.__lshift
                0x0001e9b0       0xac c:/ti/ccs1011/ccs/tools/compiler/gcc-arm-none-eabi-7-2017-q4-major-win32/bin/../lib/gcc/arm-none-eabi/7.2.1/../../../../arm-none-eabi/lib/thumb/v7e-m/fpv4-sp/hard\libg.a(lib_a-mprec.o)
                0x0001e9b0                __lshift
 .text.__mcmp   0x0001ea5c       0x38 c:/ti/ccs1011/ccs/tools/compiler/gcc-arm-none-eabi-7-2017-q4-major-win32/bin/../lib/gcc/arm-none-eabi/7.2.1/../../../../arm-none-eabi/lib/thumb/v7e-m/fpv4-sp/hard\libg.a(lib_a-mprec.o)
                0x0001ea5c                __mcmp
 .text.__mdiff  0x0001ea94       0xec c:/ti/ccs1011/ccs/tools/compiler/gcc-arm-none-eabi-7-2017-q4-major-win32/bin/../lib/gcc/arm-none-eabi/7.2.1/../../../../arm-none-eabi/lib/thumb/v7e-m/fpv4-sp/hard\libg.a(lib_a-mprec.o)
                0x0001ea94                __mdiff
 .text.__ulp    0x0001eb80       0x54 c:/ti/ccs1011/ccs/tools/compiler/gcc-arm-none-eabi-7-2017-q4-major-win32/bin/../lib/gcc/arm-none-eabi/7.2.1/../../../../arm-none-eabi/lib/thumb/v7e-m/fpv4-sp/hard\libg.a(lib_a-mprec.o)
                0x0001eb80                __ulp
 .text.__b2d    0x0001ebd4       0xbc c:/ti/ccs1011/ccs/tools/compiler/gcc-arm-none-eabi-7-2017-q4-major-win32/bin/../lib/gcc/arm-none-eabi/7.2.1/../../../../arm-none-eabi/lib/thumb/v7e-m/fpv4-sp/hard\libg.a(lib_a-mprec.o)
                0x0001ebd4                __b2d
 .text.__d2b    0x0001ec90       0xc4 c:/ti/ccs1011/ccs/tools/compiler/gcc-arm-none-eabi-7-2017-q4-major-win32/bin/../lib/gcc/arm-none-eabi/7.2.1/../../../../arm-none-eabi/lib/thumb/v7e-m/fpv4-sp/hard\libg.a(lib_a-mprec.o)
                0x0001ec90                __d2b
 .text.__ratio  0x0001ed54       0x60 c:/ti/ccs1011/ccs/tools/compiler/gcc-arm-none-eabi-7-2017-q4-major-win32/bin/../lib/gcc/arm-none-eabi/7.2.1/../../../../arm-none-eabi/lib/thumb/v7e-m/fpv4-sp/hard\libg.a(lib_a-mprec.o)
                0x0001ed54                __ratio
 .text._mprec_log10
                0x0001edb4       0x40 c:/ti/ccs1011/ccs/tools/compiler/gcc-arm-none-eabi-7-2017-q4-major-win32/bin/../lib/gcc/arm-none-eabi/7.2.1/../../../../arm-none-eabi/lib/thumb/v7e-m/fpv4-sp/hard\libg.a(lib_a-mprec.o)
                0x0001edb4                _mprec_log10
 .text.__copybits
                0x0001edf4       0x48 c:/ti/ccs1011/ccs/tools/compiler/gcc-arm-none-eabi-7-2017-q4-major-win32/bin/../lib/gcc/arm-none-eabi/7.2.1/../../../../arm-none-eabi/lib/thumb/v7e-m/fpv4-sp/hard\libg.a(lib_a-mprec.o)
                0x0001edf4                __copybits
 .text.__any_on
                0x0001ee3c       0x58 c:/ti/ccs1011/ccs/tools/compiler/gcc-arm-none-eabi-7-2017-q4-major-win32/bin/../lib/gcc/arm-none-eabi/7.2.1/../../../../arm-none-eabi/lib/thumb/v7e-m/fpv4-sp/hard\libg.a(lib_a-mprec.o)
                0x0001ee3c                __any_on
 .text._sbrk_r  0x0001ee94       0x24 c:/ti/ccs1011/ccs/tools/compiler/gcc-arm-none-eabi-7-2017-q4-major-win32/bin/../lib/gcc/arm-none-eabi/7.2.1/../../../../arm-none-eabi/lib/thumb/v7e-m/fpv4-sp/hard\libg.a(lib_a-sbrkr.o)
                0x0001ee94                _sbrk_r
 .text.__sread  0x0001eeb8       0x24 c:/ti/ccs1011/ccs/tools/compiler/gcc-arm-none-eabi-7-2017-q4-major-win32/bin/../lib/gcc/arm-none-eabi/7.2.1/../../../../arm-none-eabi/lib/thumb/v7e-m/fpv4-sp/hard\libg.a(lib_a-stdio.o)
                0x0001eeb8                __sread
 .text.__seofread
                0x0001eedc        0x4 c:/ti/ccs1011/ccs/tools/compiler/gcc-arm-none-eabi-7-2017-q4-major-win32/bin/../lib/gcc/arm-none-eabi/7.2.1/../../../../arm-none-eabi/lib/thumb/v7e-m/fpv4-sp/hard\libg.a(lib_a-stdio.o)
                0x0001eedc                __seofread
 .text.__swrite
                0x0001eee0       0x3c c:/ti/ccs1011/ccs/tools/compiler/gcc-arm-none-eabi-7-2017-q4-major-win32/bin/../lib/gcc/arm-none-eabi/7.2.1/../../../../arm-none-eabi/lib/thumb/v7e-m/fpv4-sp/hard\libg.a(lib_a-stdio.o)
                0x0001eee0                __swrite
 .text.__sseek  0x0001ef1c       0x20 c:/ti/ccs1011/ccs/tools/compiler/gcc-arm-none-eabi-7-2017-q4-major-win32/bin/../lib/gcc/arm-none-eabi/7.2.1/../../../../arm-none-eabi/lib/thumb/v7e-m/fpv4-sp/hard\libg.a(lib_a-stdio.o)
                0x0001ef1c                __sseek
 .text.__sclose
                0x0001ef3c        0x8 c:/ti/ccs1011/ccs/tools/compiler/gcc-arm-none-eabi-7-2017-q4-major-win32/bin/../lib/gcc/arm-none-eabi/7.2.1/../../../../arm-none-eabi/lib/thumb/v7e-m/fpv4-sp/hard\libg.a(lib_a-stdio.o)
                0x0001ef3c                __sclose
 .text.__ssprint_r
                0x0001ef44       0xf4 c:/ti/ccs1011/ccs/tools/compiler/gcc-arm-none-eabi-7-2017-q4-major-win32/bin/../lib/gcc/arm-none-eabi/7.2.1/../../../../arm-none-eabi/lib/thumb/v7e-m/fpv4-sp/hard\libg.a(lib_a-svfiprintf.o)
                0x0001ef44                __ssprint_r
 .text._svfiprintf_r
                0x0001f038      0xa68 c:/ti/ccs1011/ccs/tools/compiler/gcc-arm-none-eabi-7-2017-q4-major-win32/bin/../lib/gcc/arm-none-eabi/7.2.1/../../../../arm-none-eabi/lib/thumb/v7e-m/fpv4-sp/hard\libg.a(lib_a-svfiprintf.o)
                0x0001f038                _svfiprintf_r
 .text.__sprint_r.part.0
                0x0001faa0       0x78 c:/ti/ccs1011/ccs/tools/compiler/gcc-arm-none-eabi-7-2017-q4-major-win32/bin/../lib/gcc/arm-none-eabi/7.2.1/../../../../arm-none-eabi/lib/thumb/v7e-m/fpv4-sp/hard\libg.a(lib_a-vfiprintf.o)
 .text.__sprint_r
                0x0001fb18       0x14 c:/ti/ccs1011/ccs/tools/compiler/gcc-arm-none-eabi-7-2017-q4-major-win32/bin/../lib/gcc/arm-none-eabi/7.2.1/../../../../arm-none-eabi/lib/thumb/v7e-m/fpv4-sp/hard\libg.a(lib_a-vfiprintf.o)
                0x0001fb18                __sprint_r
 .text._vfiprintf_r
                0x0001fb2c      0xc24 c:/ti/ccs1011/ccs/tools/compiler/gcc-arm-none-eabi-7-2017-q4-major-win32/bin/../lib/gcc/arm-none-eabi/7.2.1/../../../../arm-none-eabi/lib/thumb/v7e-m/fpv4-sp/hard\libg.a(lib_a-vfiprintf.o)
                0x0001fb2c                _vfiprintf_r
 .text.vfiprintf
                0x00020750       0x18 c:/ti/ccs1011/ccs/tools/compiler/gcc-arm-none-eabi-7-2017-q4-major-win32/bin/../lib/gcc/arm-none-eabi/7.2.1/../../../../arm-none-eabi/lib/thumb/v7e-m/fpv4-sp/hard\libg.a(lib_a-vfiprintf.o)
                0x00020750                vfiprintf
 .text.__sbprintf
                0x00020768       0x84 c:/ti/ccs1011/ccs/tools/compiler/gcc-arm-none-eabi-7-2017-q4-major-win32/bin/../lib/gcc/arm-none-eabi/7.2.1/../../../../arm-none-eabi/lib/thumb/v7e-m/fpv4-sp/hard\libg.a(lib_a-vfiprintf.o)
 .text._write_r
                0x000207ec       0x2c c:/ti/ccs1011/ccs/tools/compiler/gcc-arm-none-eabi-7-2017-q4-major-win32/bin/../lib/gcc/arm-none-eabi/7.2.1/../../../../arm-none-eabi/lib/thumb/v7e-m/fpv4-sp/hard\libg.a(lib_a-writer.o)
                0x000207ec                _write_r
 .text.__register_exitproc
                0x00020818       0xc0 c:/ti/ccs1011/ccs/tools/compiler/gcc-arm-none-eabi-7-2017-q4-major-win32/bin/../lib/gcc/arm-none-eabi/7.2.1/../../../../arm-none-eabi/lib/thumb/v7e-m/fpv4-sp/hard\libg.a(lib_a-__atexit.o)
                0x00020818                __register_exitproc
 .text._calloc_r
                0x000208d8       0x68 c:/ti/ccs1011/ccs/tools/compiler/gcc-arm-none-eabi-7-2017-q4-major-win32/bin/../lib/gcc/arm-none-eabi/7.2.1/../../../../arm-none-eabi/lib/thumb/v7e-m/fpv4-sp/hard\libg.a(lib_a-callocr.o)
                0x000208d8                _calloc_r
 .text._close_r
                0x00020940       0x24 c:/ti/ccs1011/ccs/tools/compiler/gcc-arm-none-eabi-7-2017-q4-major-win32/bin/../lib/gcc/arm-none-eabi/7.2.1/../../../../arm-none-eabi/lib/thumb/v7e-m/fpv4-sp/hard\libg.a(lib_a-closer.o)
                0x00020940                _close_r
 .text._fclose_r
                0x00020964       0xd0 c:/ti/ccs1011/ccs/tools/compiler/gcc-arm-none-eabi-7-2017-q4-major-win32/bin/../lib/gcc/arm-none-eabi/7.2.1/../../../../arm-none-eabi/lib/thumb/v7e-m/fpv4-sp/hard\libg.a(lib_a-fclose.o)
                0x00020964                _fclose_r
 .text.fclose   0x00020a34       0x10 c:/ti/ccs1011/ccs/tools/compiler/gcc-arm-none-eabi-7-2017-q4-major-win32/bin/../lib/gcc/arm-none-eabi/7.2.1/../../../../arm-none-eabi/lib/thumb/v7e-m/fpv4-sp/hard\libg.a(lib_a-fclose.o)
                0x00020a34                fclose
 .text.__fputwc
                0x00020a44       0xa0 c:/ti/ccs1011/ccs/tools/compiler/gcc-arm-none-eabi-7-2017-q4-major-win32/bin/../lib/gcc/arm-none-eabi/7.2.1/../../../../arm-none-eabi/lib/thumb/v7e-m/fpv4-sp/hard\libg.a(lib_a-fputwc.o)
                0x00020a44                __fputwc
 .text._fputwc_r
                0x00020ae4       0x64 c:/ti/ccs1011/ccs/tools/compiler/gcc-arm-none-eabi-7-2017-q4-major-win32/bin/../lib/gcc/arm-none-eabi/7.2.1/../../../../arm-none-eabi/lib/thumb/v7e-m/fpv4-sp/hard\libg.a(lib_a-fputwc.o)
                0x00020ae4                _fputwc_r
 .text.fputwc   0x00020b48       0x38 c:/ti/ccs1011/ccs/tools/compiler/gcc-arm-none-eabi-7-2017-q4-major-win32/bin/../lib/gcc/arm-none-eabi/7.2.1/../../../../arm-none-eabi/lib/thumb/v7e-m/fpv4-sp/hard\libg.a(lib_a-fputwc.o)
                0x00020b48                fputwc
 .text._fstat_r
                0x00020b80       0x28 c:/ti/ccs1011/ccs/tools/compiler/gcc-arm-none-eabi-7-2017-q4-major-win32/bin/../lib/gcc/arm-none-eabi/7.2.1/../../../../arm-none-eabi/lib/thumb/v7e-m/fpv4-sp/hard\libg.a(lib_a-fstatr.o)
                0x00020b80                _fstat_r
 .text.__sfvwrite_r
                0x00020ba8      0x2fc c:/ti/ccs1011/ccs/tools/compiler/gcc-arm-none-eabi-7-2017-q4-major-win32/bin/../lib/gcc/arm-none-eabi/7.2.1/../../../../arm-none-eabi/lib/thumb/v7e-m/fpv4-sp/hard\libg.a(lib_a-fvwrite.o)
                0x00020ba8                __sfvwrite_r
 .text._isatty_r
                0x00020ea4       0x24 c:/ti/ccs1011/ccs/tools/compiler/gcc-arm-none-eabi-7-2017-q4-major-win32/bin/../lib/gcc/arm-none-eabi/7.2.1/../../../../arm-none-eabi/lib/thumb/v7e-m/fpv4-sp/hard\libg.a(lib_a-isattyr.o)
                0x00020ea4                _isatty_r
 .text._lseek_r
                0x00020ec8       0x2c c:/ti/ccs1011/ccs/tools/compiler/gcc-arm-none-eabi-7-2017-q4-major-win32/bin/../lib/gcc/arm-none-eabi/7.2.1/../../../../arm-none-eabi/lib/thumb/v7e-m/fpv4-sp/hard\libg.a(lib_a-lseekr.o)
                0x00020ec8                _lseek_r
 .text._read_r  0x00020ef4       0x2c c:/ti/ccs1011/ccs/tools/compiler/gcc-arm-none-eabi-7-2017-q4-major-win32/bin/../lib/gcc/arm-none-eabi/7.2.1/../../../../arm-none-eabi/lib/thumb/v7e-m/fpv4-sp/hard\libg.a(lib_a-readr.o)
                0x00020ef4                _read_r
 .text._realloc_r
                0x00020f20      0x35c c:/ti/ccs1011/ccs/tools/compiler/gcc-arm-none-eabi-7-2017-q4-major-win32/bin/../lib/gcc/arm-none-eabi/7.2.1/../../../../arm-none-eabi/lib/thumb/v7e-m/fpv4-sp/hard\libg.a(lib_a-reallocr.o)
                0x00020f20                _realloc_r
 .text.__swbuf_r
                0x0002127c       0xb0 c:/ti/ccs1011/ccs/tools/compiler/gcc-arm-none-eabi-7-2017-q4-major-win32/bin/../lib/gcc/arm-none-eabi/7.2.1/../../../../arm-none-eabi/lib/thumb/v7e-m/fpv4-sp/hard\libg.a(lib_a-wbuf.o)
                0x0002127c                __swbuf_r
 .text.__swbuf  0x0002132c       0x10 c:/ti/ccs1011/ccs/tools/compiler/gcc-arm-none-eabi-7-2017-q4-major-win32/bin/../lib/gcc/arm-none-eabi/7.2.1/../../../../arm-none-eabi/lib/thumb/v7e-m/fpv4-sp/hard\libg.a(lib_a-wbuf.o)
                0x0002132c                __swbuf
 .text._wcrtomb_r
                0x0002133c       0x50 c:/ti/ccs1011/ccs/tools/compiler/gcc-arm-none-eabi-7-2017-q4-major-win32/bin/../lib/gcc/arm-none-eabi/7.2.1/../../../../arm-none-eabi/lib/thumb/v7e-m/fpv4-sp/hard\libg.a(lib_a-wcrtomb.o)
                0x0002133c                _wcrtomb_r
 .text.wcrtomb  0x0002138c       0x54 c:/ti/ccs1011/ccs/tools/compiler/gcc-arm-none-eabi-7-2017-q4-major-win32/bin/../lib/gcc/arm-none-eabi/7.2.1/../../../../arm-none-eabi/lib/thumb/v7e-m/fpv4-sp/hard\libg.a(lib_a-wcrtomb.o)
                0x0002138c                wcrtomb
 .text._close   0x000213e0       0x10 c:/ti/ccs1011/ccs/tools/compiler/gcc-arm-none-eabi-7-2017-q4-major-win32/bin/../lib/gcc/arm-none-eabi/7.2.1/../../../../arm-none-eabi/lib/thumb/v7e-m/fpv4-sp/hard\libnosys.a(close.o)
                0x000213e0                _close
 .text._fstat   0x000213f0       0x10 c:/ti/ccs1011/ccs/tools/compiler/gcc-arm-none-eabi-7-2017-q4-major-win32/bin/../lib/gcc/arm-none-eabi/7.2.1/../../../../arm-none-eabi/lib/thumb/v7e-m/fpv4-sp/hard\libnosys.a(fstat.o)
                0x000213f0                _fstat
 .text._isatty  0x00021400       0x10 c:/ti/ccs1011/ccs/tools/compiler/gcc-arm-none-eabi-7-2017-q4-major-win32/bin/../lib/gcc/arm-none-eabi/7.2.1/../../../../arm-none-eabi/lib/thumb/v7e-m/fpv4-sp/hard\libnosys.a(isatty.o)
                0x00021400                _isatty
 .text._lseek   0x00021410       0x10 c:/ti/ccs1011/ccs/tools/compiler/gcc-arm-none-eabi-7-2017-q4-major-win32/bin/../lib/gcc/arm-none-eabi/7.2.1/../../../../arm-none-eabi/lib/thumb/v7e-m/fpv4-sp/hard\libnosys.a(lseek.o)
                0x00021410                _lseek
 .text._read    0x00021420       0x10 c:/ti/ccs1011/ccs/tools/compiler/gcc-arm-none-eabi-7-2017-q4-major-win32/bin/../lib/gcc/arm-none-eabi/7.2.1/../../../../arm-none-eabi/lib/thumb/v7e-m/fpv4-sp/hard\libnosys.a(read.o)
                0x00021420                _read
 .text._sbrk    0x00021430       0x1c c:/ti/ccs1011/ccs/tools/compiler/gcc-arm-none-eabi-7-2017-q4-major-win32/bin/../lib/gcc/arm-none-eabi/7.2.1/../../../../arm-none-eabi/lib/thumb/v7e-m/fpv4-sp/hard\libnosys.a(sbrk.o)
                0x00021430                _sbrk
 .text._write   0x0002144c       0x10 c:/ti/ccs1011/ccs/tools/compiler/gcc-arm-none-eabi-7-2017-q4-major-win32/bin/../lib/gcc/arm-none-eabi/7.2.1/../../../../arm-none-eabi/lib/thumb/v7e-m/fpv4-sp/hard\libnosys.a(write.o)
                0x0002144c                _write
 .text._exit    0x0002145c        0x4 c:/ti/ccs1011/ccs/tools/compiler/gcc-arm-none-eabi-7-2017-q4-major-win32/bin/../lib/gcc/arm-none-eabi/7.2.1/../../../../arm-none-eabi/lib/thumb/v7e-m/fpv4-sp/hard\libnosys.a(_exit.o)
                0x0002145c                _exit
                0x00021460                . = ALIGN (0x4)
 *(.ctors)
                0x00021460                . = ALIGN (0x4)
 *(.dtors)
                0x00021460                . = ALIGN (0x4)
                0x00021460                __init_array_start = .
 *(.init_array*)
 .init_array    0x00021460        0x4 c:/ti/ccs1011/ccs/tools/compiler/gcc-arm-none-eabi-7-2017-q4-major-win32/bin/../lib/gcc/arm-none-eabi/7.2.1/thumb/v7e-m/fpv4-sp/hard/crtbegin.o
 .init_array.00000
                0x00021464        0x4 c:/ti/ccs1011/ccs/tools/compiler/gcc-arm-none-eabi-7-2017-q4-major-win32/bin/../lib/gcc/arm-none-eabi/7.2.1/../../../../arm-none-eabi/lib/thumb/v7e-m/fpv4-sp/hard\libg.a(lib_a-__call_atexit.o)
                0x00021468                __init_array_end = .
 *(.init)
 .init          0x00021468        0x4 c:/ti/ccs1011/ccs/tools/compiler/gcc-arm-none-eabi-7-2017-q4-major-win32/bin/../lib/gcc/arm-none-eabi/7.2.1/thumb/v7e-m/fpv4-sp/hard/crti.o
                0x00021468                _init
 .init          0x0002146c        0x8 c:/ti/ccs1011/ccs/tools/compiler/gcc-arm-none-eabi-7-2017-q4-major-win32/bin/../lib/gcc/arm-none-eabi/7.2.1/thumb/v7e-m/fpv4-sp/hard/crtn.o
 *(.fini*)
 .fini          0x00021474        0x4 c:/ti/ccs1011/ccs/tools/compiler/gcc-arm-none-eabi-7-2017-q4-major-win32/bin/../lib/gcc/arm-none-eabi/7.2.1/thumb/v7e-m/fpv4-sp/hard/crti.o
                0x00021474                _fini
 .fini_array    0x00021478        0x4 c:/ti/ccs1011/ccs/tools/compiler/gcc-arm-none-eabi-7-2017-q4-major-win32/bin/../lib/gcc/arm-none-eabi/7.2.1/thumb/v7e-m/fpv4-sp/hard/crtbegin.o
 .fini          0x0002147c        0x8 c:/ti/ccs1011/ccs/tools/compiler/gcc-arm-none-eabi-7-2017-q4-major-win32/bin/../lib/gcc/arm-none-eabi/7.2.1/thumb/v7e-m/fpv4-sp/hard/crtn.o
                [!provide]                PROVIDE (__etext, .)
                [!provide]                PROVIDE (_etext, .)
                [!provide]                PROVIDE (etext, .)

.glue_7         0x00021484        0x0
 .glue_7        0x00021484        0x0 linker stubs

.glue_7t        0x00021484        0x0
 .glue_7t       0x00021484        0x0 linker stubs

.vfp11_veneer   0x00021484        0x0
 .vfp11_veneer  0x00021484        0x0 linker stubs

.v4_bx          0x00021484        0x0
 .v4_bx         0x00021484        0x0 linker stubs

.iplt           0x00021484        0x0
 .iplt          0x00021484        0x0 c:/ti/ccs1011/ccs/tools/compiler/gcc-arm-none-eabi-7-2017-q4-major-win32/bin/../lib/gcc/arm-none-eabi/7.2.1/thumb/v7e-m/fpv4-sp/hard/crtbegin.o

.rodata         0x00021488     0x5e3c
 *(.rodata)
 *(.rodata*)
 .rodata.DisplayIPAddress.str1.4
                0x00021488        0xc ./main.o
 .rodata.main.str1.4
                0x00021494       0x22 ./main.o
 .rodata.osTimerCreate.str1.4
                0x000214b6       0x22 ./FreeRTOS/CMSIS_RTOS/cmsis_os.o
                                  0x1 (size before relaxing)
 *fill*         0x000214b6        0x2 
 .rodata.vTaskStartScheduler.str1.4
                0x000214b8        0x5 ./FreeRTOS/tasks.o
 *fill*         0x000214bd        0x3 
 .rodata.prvCheckForValidListAndQueue.str1.4
                0x000214c0        0x5 ./FreeRTOS/timers.o
 *fill*         0x000214c5        0x3 
 .rodata.xTimerCreateTimerTask.str1.4
                0x000214c8        0x8 ./FreeRTOS/timers.o
 .rodata.data__404_html
                0x000214d0      0x2b8 ./lwip/apps/httpserver_raw/fs.o
 .rodata.data__img_sics_gif
                0x00021788      0x34f ./lwip/apps/httpserver_raw/fs.o
 *fill*         0x00021ad7        0x1 
 .rodata.data__index_html
                0x00021ad8      0x74e ./lwip/apps/httpserver_raw/fs.o
 *fill*         0x00022226        0x2 
 .rodata.file__404_html
                0x00022228       0x14 ./lwip/apps/httpserver_raw/fs.o
                0x00022228                file__404_html
 .rodata.file__img_sics_gif
                0x0002223c       0x14 ./lwip/apps/httpserver_raw/fs.o
                0x0002223c                file__img_sics_gif
 .rodata.file__index_html
                0x00022250       0x14 ./lwip/apps/httpserver_raw/fs.o
                0x00022250                file__index_html
 .rodata.g_pcSSIExtensions
                0x00022264       0x14 ./lwip/apps/httpserver_raw/httpd.o
 .rodata.g_psHTTPHeaders
                0x00022278       0xa0 ./lwip/apps/httpserver_raw/httpd.o
 .rodata.get_http_content_length.str1.4
                0x00022318       0x25 ./lwip/apps/httpserver_raw/httpd.o
                                 0x29 (size before relaxing)
 *fill*         0x0002233d        0x3 
 .rodata.get_http_headers.str1.4
                0x00022340      0x155 ./lwip/apps/httpserver_raw/httpd.o
 *fill*         0x00022495        0x3 
 .rodata.get_tag_insert.str1.4
                0x00022498       0x42 ./lwip/apps/httpserver_raw/httpd.o
 *fill*         0x000224da        0x2 
 .rodata.http_check_eof.str1.4
                0x000224dc       0x37 ./lwip/apps/httpserver_raw/httpd.o
 *fill*         0x00022513        0x1 
 .rodata.http_get_404_file.str1.4
                0x00022514       0x23 ./lwip/apps/httpserver_raw/httpd.o
 *fill*         0x00022537        0x1 
 .rodata.http_init_file.str1.4
                0x00022538       0x32 ./lwip/apps/httpserver_raw/httpd.o
                                 0x39 (size before relaxing)
 *fill*         0x0002256a        0x2 
 .rodata.http_parse_request.str1.4
                0x0002256c        0xa ./lwip/apps/httpserver_raw/httpd.o
                                 0x16 (size before relaxing)
 *fill*         0x00022576        0x2 
 .rodata.http_recv.str1.4
                0x00022578       0x2c ./lwip/apps/httpserver_raw/httpd.o
 .rodata.http_send_data_ssi.str1.4
                0x000225a4       0x17 ./lwip/apps/httpserver_raw/httpd.o
 *fill*         0x000225bb        0x1 
 .rodata.http_set_cgi_handlers.str1.4
                0x000225bc       0x2b ./lwip/apps/httpserver_raw/httpd.o
 *fill*         0x000225e7        0x1 
 .rodata.http_set_ssi_handler.str1.4
                0x000225e8       0x3f ./lwip/apps/httpserver_raw/httpd.o
 *fill*         0x00022627        0x1 
 .rodata.http_ssi_tag_desc
                0x00022628       0x10 ./lwip/apps/httpserver_raw/httpd.o
                0x00022628                http_ssi_tag_desc
 .rodata.http_write.str1.4
                0x00022638        0xf ./lwip/apps/httpserver_raw/httpd.o
 *fill*         0x00022647        0x1 
 .rodata.httpd_default_filenames
                0x00022648       0x28 ./lwip/apps/httpserver_raw/httpd.o
 .rodata.httpd_init.str1.4
                0x00022670       0x1b ./lwip/apps/httpserver_raw/httpd.o
 *fill*         0x0002268b        0x1 
 .rodata.httpd_init_pcb.str1.4
                0x0002268c       0x86 ./lwip/apps/httpserver_raw/httpd.o
 *fill*         0x00022712        0x2 
 .rodata.str1.4
                0x00022714      0x2af ./lwip/apps/httpserver_raw/httpd.o
                                0x2c3 (size before relaxing)
 *fill*         0x000229c3        0x1 
 .rodata.lwIPPrivateInit.str1.4
                0x000229c4       0x11 ./lwip/lwiplib.o
 *fill*         0x000229d5        0x3 
 .rodata.tivaif_init.str1.4
                0x000229d8       0x2c ./lwip/port/tiva-tm4c129.o
                                 0x54 (size before relaxing)
 .rodata.netconn_accept.str1.4
                0x00022a04       0x3d ./lwip/src/api/api_lib.o
 *fill*         0x00022a41        0x3 
 .rodata.netconn_bind.str1.4
                0x00022a44       0x1b ./lwip/src/api/api_lib.o
 *fill*         0x00022a5f        0x1 
 .rodata.netconn_bind_if.str1.4
                0x00022a60       0x1e ./lwip/src/api/api_lib.o
 *fill*         0x00022a7e        0x2 
 .rodata.netconn_close_shutdown.str1.4
                0x00022a80       0x1c ./lwip/src/api/api_lib.o
 .rodata.netconn_connect.str1.4
                0x00022a9c       0x1e ./lwip/src/api/api_lib.o
 *fill*         0x00022aba        0x2 
 .rodata.netconn_disconnect.str1.4
                0x00022abc       0x21 ./lwip/src/api/api_lib.o
 *fill*         0x00022add        0x3 
 .rodata.netconn_getaddr.str1.4
                0x00022ae0       0x5e ./lwip/src/api/api_lib.o
 *fill*         0x00022b3e        0x2 
 .rodata.netconn_gethostbyname.str1.4
                0x00022b40       0x48 ./lwip/src/api/api_lib.o
 .rodata.netconn_listen_with_backlog.str1.4
                0x00022b88       0x1d ./lwip/src/api/api_lib.o
 *fill*         0x00022ba5        0x3 
 .rodata.netconn_new_with_proto_and_callback.str1.4
                0x00022ba8       0x79 ./lwip/src/api/api_lib.o
 .rodata.netconn_recv.str1.4
                0x00022c21        0xa ./lwip/src/api/api_lib.o
 *fill*         0x00022c21        0x3 
 .rodata.netconn_recv_data.str1.4
                0x00022c24       0x48 ./lwip/src/api/api_lib.o
 .rodata.netconn_recv_udp_raw_netbuf.str1.4
                0x00022c6c       0x2a ./lwip/src/api/api_lib.o
 *fill*         0x00022c96        0x2 
 .rodata.netconn_send.str1.4
                0x00022c98       0x1b ./lwip/src/api/api_lib.o
 *fill*         0x00022cb3        0x1 
 .rodata.netconn_tcp_recvd_msg.str1.4
                0x00022cb4       0x40 ./lwip/src/api/api_lib.o
                                 0x68 (size before relaxing)
 .rodata.netconn_write_vectors_partly.str1.4
                0x00022cf4       0x63 ./lwip/src/api/api_lib.o
 *fill*         0x00022d57        0x1 
 .rodata.accept_function.str1.4
                0x00022d58       0x27 ./lwip/src/api/api_msg.o
 *fill*         0x00022d7f        0x1 
 .rodata.err_tcp.str1.4
                0x00022d80       0x62 ./lwip/src/api/api_msg.o
 *fill*         0x00022de2        0x2 
 .rodata.lwip_netconn_do_close_internal.str1.4
                0x00022de4       0x7b ./lwip/src/api/api_msg.o
                                 0x8b (size before relaxing)
 *fill*         0x00022e5f        0x1 
 .rodata.lwip_netconn_do_connect.str1.4
                0x00022e60       0x15 ./lwip/src/api/api_msg.o
 *fill*         0x00022e75        0x3 
 .rodata.lwip_netconn_do_connected.str1.4
                0x00022e78       0x7d ./lwip/src/api/api_msg.o
 *fill*         0x00022ef5        0x3 
 .rodata.lwip_netconn_do_delconn.str1.4
                0x00022ef8       0x57 ./lwip/src/api/api_msg.o
 *fill*         0x00022f4f        0x1 
 .rodata.lwip_netconn_do_getaddr.str1.4
                0x00022f50       0x15 ./lwip/src/api/api_msg.o
 *fill*         0x00022f65        0x3 
 .rodata.lwip_netconn_do_gethostbyname.str1.4
                0x00022f68       0x25 ./lwip/src/api/api_msg.o
 *fill*         0x00022f8d        0x3 
 .rodata.lwip_netconn_do_write.str1.4
                0x00022f90       0x14 ./lwip/src/api/api_msg.o
 .rodata.lwip_netconn_do_writemore.str1.4
                0x00022fa4       0xcb ./lwip/src/api/api_msg.o
 *fill*         0x0002306f        0x1 
 .rodata.lwip_netconn_err_to_msg.str1.4
                0x00023070       0x2c ./lwip/src/api/api_msg.o
                                 0x54 (size before relaxing)
 .rodata.lwip_netconn_is_err_msg.str1.4
                0x0002309c        0xc ./lwip/src/api/api_msg.o
 .rodata.netconn_aborted
                0x000230a8        0x1 ./lwip/src/api/api_msg.o
                0x000230a8                netconn_aborted
 *fill*         0x000230a9        0x3 
 .rodata.netconn_alloc.str1.4
                0x000230ac       0x26 ./lwip/src/api/api_msg.o
 .rodata.netconn_closed
                0x000230d2        0x1 ./lwip/src/api/api_msg.o
                0x000230d2                netconn_closed
 *fill*         0x000230d3        0x1 
 .rodata.netconn_free.str1.4
                0x000230d4       0xa8 ./lwip/src/api/api_msg.o
 .rodata.netconn_reset
                0x0002317c        0x1 ./lwip/src/api/api_msg.o
                0x0002317c                netconn_reset
 *fill*         0x0002317d        0x3 
 .rodata.pcb_new.str1.4
                0x00023180       0x1f ./lwip/src/api/api_msg.o
 *fill*         0x0002319f        0x1 
 .rodata.recv_tcp.str1.4
                0x000231a0       0x7a ./lwip/src/api/api_msg.o
 *fill*         0x0002321a        0x2 
 .rodata.recv_udp.str1.4
                0x0002321c       0x62 ./lwip/src/api/api_msg.o
 *fill*         0x0002327e        0x2 
 .rodata.err_to_errno_table
                0x00023280       0x44 ./lwip/src/api/err.o
 .rodata.netbuf_alloc.str1.4
                0x000232c4       0x5c ./lwip/src/api/netbuf.o
                                 0x84 (size before relaxing)
 .rodata.netbuf_chain.str1.4
                0x00023320       0x37 ./lwip/src/api/netbuf.o
 *fill*         0x00023357        0x1 
 .rodata.netbuf_data.str1.4
                0x00023358       0x55 ./lwip/src/api/netbuf.o
 *fill*         0x000233ad        0x3 
 .rodata.netbuf_first.str1.4
                0x000233b0       0x1a ./lwip/src/api/netbuf.o
 *fill*         0x000233ca        0x2 
 .rodata.netbuf_free.str1.4
                0x000233cc       0x19 ./lwip/src/api/netbuf.o
 *fill*         0x000233e5        0x3 
 .rodata.netbuf_next.str1.4
                0x000233e8       0x19 ./lwip/src/api/netbuf.o
 *fill*         0x00023401        0x3 
 .rodata.netbuf_ref.str1.4
                0x00023404       0x18 ./lwip/src/api/netbuf.o
 .rodata.lwip_getaddrinfo.str1.4
                0x0002341c       0x5f ./lwip/src/api/netdb.o
                                 0x87 (size before relaxing)
 *fill*         0x0002347b        0x1 
 .rodata.alloc_socket.str1.4
                0x0002347c       0x1f ./lwip/src/api/sockets.o
 *fill*         0x0002349b        0x1 
 .rodata.event_callback.str1.4
                0x0002349c        0xe ./lwip/src/api/sockets.o
 *fill*         0x000234aa        0x2 
 .rodata.lwip_accept.str1.4
                0x000234ac       0x25 ./lwip/src/api/sockets.o
 *fill*         0x000234d1        0x3 
 .rodata.lwip_bind.str1.4
                0x000234d4       0x1b ./lwip/src/api/sockets.o
 *fill*         0x000234ef        0x1 
 .rodata.lwip_close.str1.4
                0x000234f0       0x17 ./lwip/src/api/sockets.o
 *fill*         0x00023507        0x1 
 .rodata.lwip_connect.str1.4
                0x00023508       0x1e ./lwip/src/api/sockets.o
 *fill*         0x00023526        0x2 
 .rodata.lwip_poll.str1.4
                0x00023528       0x24 ./lwip/src/api/sockets.o
 .rodata.lwip_pollscan.str1.4
                0x0002354c       0x19 ./lwip/src/api/sockets.o
 *fill*         0x00023565        0x3 
 .rodata.lwip_recv_tcp.str1.4
                0x00023568       0x6c ./lwip/src/api/sockets.o
                                 0x78 (size before relaxing)
 .rodata.lwip_recvfrom.str1.4
                0x000235d4        0xe ./lwip/src/api/sockets.o
 *fill*         0x000235e2        0x2 
 .rodata.lwip_recvfrom_udp_raw.str1.4
                0x000235e4       0x29 ./lwip/src/api/sockets.o
                                 0x38 (size before relaxing)
 *fill*         0x0002360d        0x3 
 .rodata.lwip_recvmsg.str1.4
                0x00023610       0x48 ./lwip/src/api/sockets.o
 .rodata.lwip_selscan.str1.4
                0x00023658        0xc ./lwip/src/api/sockets.o
 .rodata.lwip_sendmsg.str1.4
                0x00023664       0xaa ./lwip/src/api/sockets.o
 *fill*         0x0002370e        0x2 
 .rodata.lwip_sendto.str1.4
                0x00023710       0x1d ./lwip/src/api/sockets.o
 *fill*         0x0002372d        0x3 
 .rodata.lwip_setsockopt_impl.str1.4
                0x00023730       0x2a ./lwip/src/api/sockets.o
 *fill*         0x0002375a        0x2 
 .rodata.lwip_sock_make_addr.str1.4
                0x0002375c       0x34 ./lwip/src/api/sockets.o
 .rodata.lwip_sockopt_to_ipopt.str1.4
                0x00023790       0x32 ./lwip/src/api/sockets.o
                                 0x5c (size before relaxing)
 *fill*         0x000237c2        0x2 
 .rodata.lwip_unlink_select_cb.str1.4
                0x000237c4       0x30 ./lwip/src/api/sockets.o
 .rodata.tcpip_init.str1.4
                0x000237f4       0x4f ./lwip/src/api/tcpip.o
 *fill*         0x00023843        0x1 
 .rodata.tcpip_inpkt.str1.4
                0x00023844        0xd ./lwip/src/api/tcpip.o
 *fill*         0x00023851        0x3 
 .rodata.tcpip_thread_handle_msg.str1.4
                0x00023854       0x36 ./lwip/src/api/tcpip.o
                                 0x60 (size before relaxing)
 *fill*         0x0002388a        0x2 
 .rodata.dns_check_entry.str1.4
                0x0002388c       0x3b ./lwip/src/core/dns.o
 *fill*         0x000238c7        0x1 
 .rodata.dns_mquery_v4group
                0x000238c8        0x4 ./lwip/src/core/dns.o
                0x000238c8                dns_mquery_v4group
 .rodata.dns_send.str1.4
                0x000238cc       0x30 ./lwip/src/core/dns.o
                                 0x58 (size before relaxing)
 .rodata.inet_cksum_pseudo_partial_base.str1.4
                0x000238fc       0x2a ./lwip/src/core/inet_chksum.o
                                 0x54 (size before relaxing)
 *fill*         0x00023926        0x2 
 .rodata.mem_free.str1.4
                0x00023928       0x9a ./lwip/src/core/mem.o
 *fill*         0x000239c2        0x2 
 .rodata.mem_init.str1.4
                0x000239c4       0x1b ./lwip/src/core/mem.o
 *fill*         0x000239df        0x1 
 .rodata.mem_malloc.str1.4
                0x000239e0       0x9f ./lwip/src/core/mem.o
 *fill*         0x00023a7f        0x1 
 .rodata.mem_trim.str1.4
                0x00023a80       0x49 ./lwip/src/core/mem.o
 *fill*         0x00023ac9        0x3 
 .rodata.plug_holes.str1.4
                0x00023acc       0x92 ./lwip/src/core/mem.o
                                 0xba (size before relaxing)
 *fill*         0x00023b5e        0x2 
 .rodata.do_memp_free_pool.str1.4
                0x00023b60       0x20 ./lwip/src/core/memp.o
 .rodata.do_memp_malloc_pool.str1.4
                0x00023b80       0x3b ./lwip/src/core/memp.o
                                 0x64 (size before relaxing)
 *fill*         0x00023bbb        0x1 
 .rodata.memp_FRAG_PBUF
                0x00023bbc        0xc ./lwip/src/core/memp.o
                0x00023bbc                memp_FRAG_PBUF
 .rodata.memp_NETBUF
                0x00023bc8        0xc ./lwip/src/core/memp.o
                0x00023bc8                memp_NETBUF
 .rodata.memp_NETCONN
                0x00023bd4        0xc ./lwip/src/core/memp.o
                0x00023bd4                memp_NETCONN
 .rodata.memp_NETDB
                0x00023be0        0xc ./lwip/src/core/memp.o
                0x00023be0                memp_NETDB
 .rodata.memp_PBUF
                0x00023bec        0xc ./lwip/src/core/memp.o
                0x00023bec                memp_PBUF
 .rodata.memp_PBUF_POOL
                0x00023bf8        0xc ./lwip/src/core/memp.o
                0x00023bf8                memp_PBUF_POOL
 .rodata.memp_REASSDATA
                0x00023c04        0xc ./lwip/src/core/memp.o
                0x00023c04                memp_REASSDATA
 .rodata.memp_SYS_TIMEOUT
                0x00023c10        0xc ./lwip/src/core/memp.o
                0x00023c10                memp_SYS_TIMEOUT
 .rodata.memp_TCPIP_MSG_API
                0x00023c1c        0xc ./lwip/src/core/memp.o
                0x00023c1c                memp_TCPIP_MSG_API
 .rodata.memp_TCPIP_MSG_INPKT
                0x00023c28        0xc ./lwip/src/core/memp.o
                0x00023c28                memp_TCPIP_MSG_INPKT
 .rodata.memp_TCP_PCB
                0x00023c34        0xc ./lwip/src/core/memp.o
                0x00023c34                memp_TCP_PCB
 .rodata.memp_TCP_PCB_LISTEN
                0x00023c40        0xc ./lwip/src/core/memp.o
                0x00023c40                memp_TCP_PCB_LISTEN
 .rodata.memp_TCP_SEG
                0x00023c4c        0xc ./lwip/src/core/memp.o
                0x00023c4c                memp_TCP_SEG
 .rodata.memp_UDP_PCB
                0x00023c58        0xc ./lwip/src/core/memp.o
                0x00023c58                memp_UDP_PCB
 .rodata.memp_free.str1.4
                0x00023c64       0x1b ./lwip/src/core/memp.o
 *fill*         0x00023c7f        0x1 
 .rodata.memp_malloc.str1.4
                0x00023c80       0x1d ./lwip/src/core/memp.o
 *fill*         0x00023c9d        0x3 
 .rodata.memp_malloc_pool.str1.4
                0x00023ca0       0x12 ./lwip/src/core/memp.o
 *fill*         0x00023cb2        0x2 
 .rodata.memp_pools
                0x00023cb4       0x38 ./lwip/src/core/memp.o
                0x00023cb4                memp_pools
 .rodata.netif_add.str1.4
                0x00023cec       0x82 ./lwip/src/core/netif.o
 .rodata.netif_do_set_ipaddr.str1.4
                0x00023d6e       0x82 ./lwip/src/core/netif.o
                                 0x10 (size before relaxing)
 *fill*         0x00023d6e        0x2 
 .rodata.netif_input.str1.4
                0x00023d70       0x37 ./lwip/src/core/netif.o
 *fill*         0x00023da7        0x1 
 .rodata.netif_issue_reports.str1.4
                0x00023da8       0x3f ./lwip/src/core/netif.o
                                 0x68 (size before relaxing)
 *fill*         0x00023de7        0x1 
 .rodata.netif_set_down.str1.4
                0x00023de8       0x1e ./lwip/src/core/netif.o
 *fill*         0x00023e06        0x2 
 .rodata.netif_set_gw.str1.4
                0x00023e08       0x1c ./lwip/src/core/netif.o
 .rodata.netif_set_ipaddr.str1.4
                0x00023e24       0x20 ./lwip/src/core/netif.o
 .rodata.netif_set_link_down.str1.4
                0x00023e44       0x23 ./lwip/src/core/netif.o
 *fill*         0x00023e67        0x1 
 .rodata.netif_set_link_up.str1.4
                0x00023e68       0x21 ./lwip/src/core/netif.o
 *fill*         0x00023e89        0x3 
 .rodata.netif_set_netmask.str1.4
                0x00023e8c       0x21 ./lwip/src/core/netif.o
 *fill*         0x00023ead        0x3 
 .rodata.netif_set_up.str1.4
                0x00023eb0       0x1c ./lwip/src/core/netif.o
 .rodata.pbuf_add_header_impl.str1.4
                0x00023ecc       0x18 ./lwip/src/core/pbuf.o
                                 0x4c (size before relaxing)
 .rodata.pbuf_alloc.str1.4
                0x00023ee4       0xab ./lwip/src/core/pbuf.o
 *fill*         0x00023f8f        0x1 
 .rodata.pbuf_alloc_reference.str1.4
                0x00023f90       0x12 ./lwip/src/core/pbuf.o
 *fill*         0x00023fa2        0x2 
 .rodata.pbuf_cat.str1.4
                0x00023fa4       0x78 ./lwip/src/core/pbuf.o
 .rodata.pbuf_clone.str1.4
                0x0002401c       0x11 ./lwip/src/core/pbuf.o
 *fill*         0x0002402d        0x3 
 .rodata.pbuf_copy.str1.4
                0x00024030       0x9e ./lwip/src/core/pbuf.o
 *fill*         0x000240ce        0x2 
 .rodata.pbuf_copy_partial.str1.4
                0x000240d0       0x43 ./lwip/src/core/pbuf.o
 *fill*         0x00024113        0x1 
 .rodata.pbuf_dechain.str1.4
                0x00024114       0x39 ./lwip/src/core/pbuf.o
 *fill*         0x0002414d        0x3 
 .rodata.pbuf_free.str1.4
                0x00024150       0x4e ./lwip/src/core/pbuf.o
 *fill*         0x0002419e        0x2 
 .rodata.pbuf_get_contiguous.str1.4
                0x000241a0       0x49 ./lwip/src/core/pbuf.o
 *fill*         0x000241e9        0x3 
 .rodata.pbuf_realloc.str1.4
                0x000241ec       0x4c ./lwip/src/core/pbuf.o
 .rodata.pbuf_ref.str1.4
                0x00024238       0x12 ./lwip/src/core/pbuf.o
 *fill*         0x0002424a        0x2 
 .rodata.pbuf_remove_header.str1.4
                0x0002424c       0x1e ./lwip/src/core/pbuf.o
 *fill*         0x0002426a        0x2 
 .rodata.pbuf_take.str1.4
                0x0002426c       0x82 ./lwip/src/core/pbuf.o
 *fill*         0x000242ee        0x2 
 .rodata.pbuf_take_at.str1.4
                0x000242f0       0x17 ./lwip/src/core/pbuf.o
 *fill*         0x00024307        0x1 
 .rodata.str1.4
                0x00024308       0x66 ./lwip/src/core/tcp.o
                                 0x76 (size before relaxing)
 *fill*         0x0002436e        0x2 
 .rodata.tcp_abandon.str1.4
                0x00024370       0x4d ./lwip/src/core/tcp.o
 *fill*         0x000243bd        0x3 
 .rodata.tcp_accept_null.str1.4
                0x000243c0       0x1d ./lwip/src/core/tcp.o
 *fill*         0x000243dd        0x3 
 .rodata.tcp_backoff
                0x000243e0        0xd ./lwip/src/core/tcp.o
 *fill*         0x000243ed        0x3 
 .rodata.tcp_bind.str1.4
                0x000243f0       0x40 ./lwip/src/core/tcp.o
 .rodata.tcp_close.str1.4
                0x00024430       0x17 ./lwip/src/core/tcp.o
 *fill*         0x00024447        0x1 
 .rodata.tcp_close_shutdown.str1.4
                0x00024448       0x39 ./lwip/src/core/tcp.o
 *fill*         0x00024481        0x3 
 .rodata.tcp_connect.str1.4
                0x00024484       0x68 ./lwip/src/core/tcp.o
 .rodata.tcp_eff_send_mss_netif.str1.4
                0x000244ec       0x27 ./lwip/src/core/tcp.o
 *fill*         0x00024513        0x1 
 .rodata.tcp_err.str1.4
                0x00024514       0x26 ./lwip/src/core/tcp.o
 *fill*         0x0002453a        0x2 
 .rodata.tcp_free.str1.4
                0x0002453c       0x11 ./lwip/src/core/tcp.o
 *fill*         0x0002454d        0x3 
 .rodata.tcp_free_listen.str1.4
                0x00024550       0x19 ./lwip/src/core/tcp.o
 *fill*         0x00024569        0x3 
 .rodata.tcp_kill_state.str1.4
                0x0002456c        0xe ./lwip/src/core/tcp.o
 *fill*         0x0002457a        0x2 
 .rodata.tcp_listen_closed.str1.4
                0x0002457c       0x21 ./lwip/src/core/tcp.o
 *fill*         0x0002459d        0x3 
 .rodata.tcp_listen_with_backlog_and_err.str1.4
                0x000245a0       0x67 ./lwip/src/core/tcp.o
 *fill*         0x00024607        0x1 
 .rodata.tcp_netif_ip_addr_changed_pcblist.str1.4
                0x00024608       0x34 ./lwip/src/core/tcp.o
 .rodata.tcp_next_iss.str1.4
                0x0002463c       0x1a ./lwip/src/core/tcp.o
 *fill*         0x00024656        0x2 
 .rodata.tcp_pcb_lists
                0x00024658       0x10 ./lwip/src/core/tcp.o
                0x00024658                tcp_pcb_lists
 .rodata.tcp_pcb_purge.str1.4
                0x00024668       0x1b ./lwip/src/core/tcp.o
 *fill*         0x00024683        0x1 
 .rodata.tcp_pcb_remove.str1.4
                0x00024684       0x6d ./lwip/src/core/tcp.o
 *fill*         0x000246f1        0x3 
 .rodata.tcp_persist_backoff
                0x000246f4        0x7 ./lwip/src/core/tcp.o
 *fill*         0x000246fb        0x1 
 .rodata.tcp_poll.str1.4
                0x000246fc       0x36 ./lwip/src/core/tcp.o
 *fill*         0x00024732        0x2 
 .rodata.tcp_process_refused_data.str1.4
                0x00024734       0x26 ./lwip/src/core/tcp.o
 *fill*         0x0002475a        0x2 
 .rodata.tcp_recv.str1.4
                0x0002475c       0x27 ./lwip/src/core/tcp.o
 *fill*         0x00024783        0x1 
 .rodata.tcp_recv_null.str1.4
                0x00024784       0x1b ./lwip/src/core/tcp.o
 *fill*         0x0002479f        0x1 
 .rodata.tcp_recved.str1.4
                0x000247a0       0x3e ./lwip/src/core/tcp.o
 *fill*         0x000247de        0x2 
 .rodata.tcp_remove_listener.str1.4
                0x000247e0       0x3e ./lwip/src/core/tcp.o
                                 0x68 (size before relaxing)
 *fill*         0x0002481e        0x2 
 .rodata.tcp_sent.str1.4
                0x00024820       0x27 ./lwip/src/core/tcp.o
 *fill*         0x00024847        0x1 
 .rodata.tcp_setprio.str1.4
                0x00024848       0x19 ./lwip/src/core/tcp.o
 *fill*         0x00024861        0x3 
 .rodata.tcp_shutdown.str1.4
                0x00024864       0x1a ./lwip/src/core/tcp.o
 *fill*         0x0002487e        0x2 
 .rodata.tcp_slowtmr.str1.4
                0x00024880      0x1ca ./lwip/src/core/tcp.o
 *fill*         0x00024a4a        0x2 
 .rodata.tcp_state_str
                0x00024a4c       0x2c ./lwip/src/core/tcp.o
 .rodata.tcp_update_rcv_ann_wnd.str1.4
                0x00024a78       0x3e ./lwip/src/core/tcp.o
 *fill*         0x00024ab6        0x2 
 .rodata.tcp_free_acked_segments.str1.4
                0x00024ab8       0x48 ./lwip/src/core/tcp_in.o
 .rodata.tcp_input.str1.4
                0x00024b00      0x172 ./lwip/src/core/tcp_in.o
 *fill*         0x00024c72        0x2 
 .rodata.tcp_input_delayed_close.str1.4
                0x00024c74       0x25 ./lwip/src/core/tcp_in.o
 *fill*         0x00024c99        0x3 
 .rodata.tcp_listen_input.str1.4
                0x00024c9c       0x1e ./lwip/src/core/tcp_in.o
 *fill*         0x00024cba        0x2 
 .rodata.tcp_parseopt.str1.4
                0x00024cbc       0x36 ./lwip/src/core/tcp_in.o
                                 0x60 (size before relaxing)
 *fill*         0x00024cf2        0x2 
 .rodata.tcp_process.str1.4
                0x00024cf4       0x86 ./lwip/src/core/tcp_in.o
 *fill*         0x00024d7a        0x2 
 .rodata.tcp_receive.str1.4
                0x00024d7c       0xcf ./lwip/src/core/tcp_in.o
 *fill*         0x00024e4b        0x1 
 .rodata.tcp_timewait_input.str1.4
                0x00024e4c       0x20 ./lwip/src/core/tcp_in.o
 .rodata.tcp_create_segment.str1.4
                0x00024e6c       0x59 ./lwip/src/core/tcp_out.o
 *fill*         0x00024ec5        0x3 
 .rodata.tcp_enqueue_flags.str1.4
                0x00024ec8      0x120 ./lwip/src/core/tcp_out.o
 .rodata.tcp_keepalive.str1.4
                0x00024fe8       0x1b ./lwip/src/core/tcp_out.o
 *fill*         0x00025003        0x1 
 .rodata.tcp_output.str1.4
                0x00025004       0x57 ./lwip/src/core/tcp_out.o
 *fill*         0x0002505b        0x1 
 .rodata.tcp_output_alloc_header.str1.4
                0x0002505c       0x25 ./lwip/src/core/tcp_out.o
 *fill*         0x00025081        0x3 
 .rodata.tcp_output_alloc_header_common.str1.4
                0x00025084       0x2e ./lwip/src/core/tcp_out.o
 *fill*         0x000250b2        0x2 
 .rodata.tcp_output_control_segment.str1.4
                0x000250b4       0x29 ./lwip/src/core/tcp_out.o
 *fill*         0x000250dd        0x3 
 .rodata.tcp_output_fill_options.str1.4
                0x000250e0       0x3b ./lwip/src/core/tcp_out.o
 *fill*         0x0002511b        0x1 
 .rodata.tcp_output_segment.str1.4
                0x0002511c       0x62 ./lwip/src/core/tcp_out.o
 *fill*         0x0002517e        0x2 
 .rodata.tcp_output_segment_busy.str1.4
                0x00025180       0x25 ./lwip/src/core/tcp_out.o
 *fill*         0x000251a5        0x3 
 .rodata.tcp_pbuf_prealloc.str1.4
                0x000251a8       0x58 ./lwip/src/core/tcp_out.o
 .rodata.tcp_rexmit.str1.4
                0x00025200       0x18 ./lwip/src/core/tcp_out.o
 .rodata.tcp_rexmit_fast.str1.4
                0x00025218       0x1d ./lwip/src/core/tcp_out.o
 *fill*         0x00025235        0x3 
 .rodata.tcp_rexmit_rto.str1.4
                0x00025238       0x1c ./lwip/src/core/tcp_out.o
 .rodata.tcp_rexmit_rto_commit.str1.4
                0x00025254       0x23 ./lwip/src/core/tcp_out.o
 *fill*         0x00025277        0x1 
 .rodata.tcp_rexmit_rto_prepare.str1.4
                0x00025278       0x24 ./lwip/src/core/tcp_out.o
 .rodata.tcp_rst.str1.4
                0x0002529c       0x37 ./lwip/src/core/tcp_out.o
 *fill*         0x000252d3        0x1 
 .rodata.tcp_send_empty_ack.str1.4
                0x000252d4       0x20 ./lwip/src/core/tcp_out.o
 .rodata.tcp_send_fin.str1.4
                0x000252f4       0x1a ./lwip/src/core/tcp_out.o
 *fill*         0x0002530e        0x2 
 .rodata.tcp_split_unsent_seg.str1.4
                0x00025310       0x66 ./lwip/src/core/tcp_out.o
 *fill*         0x00025376        0x2 
 .rodata.tcp_write.str1.4
                0x00025378      0x1f2 ./lwip/src/core/tcp_out.o
 *fill*         0x0002556a        0x2 
 .rodata.tcp_write_checks.str1.4
                0x0002556c       0xaa ./lwip/src/core/tcp_out.o
                                 0xd2 (size before relaxing)
 *fill*         0x00025616        0x2 
 .rodata.tcp_zero_window_probe.str1.4
                0x00025618       0x23 ./lwip/src/core/tcp_out.o
 *fill*         0x0002563b        0x1 
 .rodata.lwip_cyclic_timers
                0x0002563c       0x30 ./lwip/src/core/timeouts.o
                0x0002563c                lwip_cyclic_timers
 .rodata.lwip_num_cyclic_timers
                0x0002566c        0x4 ./lwip/src/core/timeouts.o
                0x0002566c                lwip_num_cyclic_timers
 .rodata.sys_timeout.str1.4
                0x00025670       0x36 ./lwip/src/core/timeouts.o
 *fill*         0x000256a6        0x2 
 .rodata.sys_timeout_abs.str1.4
                0x000256a8       0x59 ./lwip/src/core/timeouts.o
                                 0x84 (size before relaxing)
 *fill*         0x00025701        0x3 
 .rodata.sys_timeouts_sleeptime.str1.4
                0x00025704       0x12 ./lwip/src/core/timeouts.o
 *fill*         0x00025716        0x2 
 .rodata.udp_bind.str1.4
                0x00025718       0x16 ./lwip/src/core/udp.o
 *fill*         0x0002572e        0x2 
 .rodata.udp_connect.str1.4
                0x00025730       0x38 ./lwip/src/core/udp.o
 .rodata.udp_disconnect.str1.4
                0x00025768       0x1c ./lwip/src/core/udp.o
 .rodata.udp_input.str1.4
                0x00025784       0x4f ./lwip/src/core/udp.o
 *fill*         0x000257d3        0x1 
 .rodata.udp_input_local_match.str1.4
                0x000257d4       0x61 ./lwip/src/core/udp.o
                                 0x89 (size before relaxing)
 *fill*         0x00025835        0x3 
 .rodata.udp_recv.str1.4
                0x00025838       0x16 ./lwip/src/core/udp.o
 *fill*         0x0002584e        0x2 
 .rodata.udp_remove.str1.4
                0x00025850       0x18 ./lwip/src/core/udp.o
 .rodata.udp_send.str1.4
                0x00025868       0x2f ./lwip/src/core/udp.o
 *fill*         0x00025897        0x1 
 .rodata.udp_sendto.str1.4
                0x00025898       0x4f ./lwip/src/core/udp.o
 *fill*         0x000258e7        0x1 
 .rodata.udp_sendto_if.str1.4
                0x000258e8       0x75 ./lwip/src/core/udp.o
 *fill*         0x0002595d        0x3 
 .rodata.udp_sendto_if_src.str1.4
                0x00025960       0xda ./lwip/src/core/udp.o
 *fill*         0x00025a3a        0x2 
 .rodata.dhcp_bind.str1.4
                0x00025a3c       0x34 ./lwip/src/core/ipv4/dhcp.o
 .rodata.dhcp_create_msg.str1.4
                0x00025a70       0x80 ./lwip/src/core/ipv4/dhcp.o
 .rodata.dhcp_dec_pcb_refcount.str1.4
                0x00025af0       0x24 ./lwip/src/core/ipv4/dhcp.o
 .rodata.dhcp_discover_request_options
                0x00025b14        0x4 ./lwip/src/core/ipv4/dhcp.o
 .rodata.dhcp_inc_pcb_refcount.str1.4
                0x00025b18       0x25 ./lwip/src/core/ipv4/dhcp.o
 *fill*         0x00025b3d        0x3 
 .rodata.dhcp_network_changed.str1.4
                0x00025b40       0x14 ./lwip/src/core/ipv4/dhcp.o
 .rodata.dhcp_option.str1.4
                0x00025b54       0x42 ./lwip/src/core/ipv4/dhcp.o
 *fill*         0x00025b96        0x2 
 .rodata.dhcp_option_byte.str1.4
                0x00025b98       0x35 ./lwip/src/core/ipv4/dhcp.o
 *fill*         0x00025bcd        0x3 
 .rodata.dhcp_option_long.str1.4
                0x00025bd0       0x3a ./lwip/src/core/ipv4/dhcp.o
 *fill*         0x00025c0a        0x2 
 .rodata.dhcp_option_short.str1.4
                0x00025c0c       0x5b ./lwip/src/core/ipv4/dhcp.o
                                 0x84 (size before relaxing)
 *fill*         0x00025c67        0x1 
 .rodata.dhcp_parse_reply.str1.4
                0x00025c68       0xa7 ./lwip/src/core/ipv4/dhcp.o
 *fill*         0x00025d0f        0x1 
 .rodata.dhcp_select.str1.4
                0x00025d10       0x36 ./lwip/src/core/ipv4/dhcp.o
 *fill*         0x00025d46        0x2 
 .rodata.dhcp_set_struct.str1.4
                0x00025d48       0x44 ./lwip/src/core/ipv4/dhcp.o
 .rodata.dhcp_start.str1.4
                0x00025d8c       0x21 ./lwip/src/core/ipv4/dhcp.o
 *fill*         0x00025dad        0x3 
 .rodata.etharp_find_addr.str1.4
                0x00025db0       0x22 ./lwip/src/core/ipv4/etharp.o
 *fill*         0x00025dd2        0x2 
 .rodata.etharp_find_entry.str1.4
                0x00025dd4       0x75 ./lwip/src/core/ipv4/etharp.o
                                 0x9d (size before relaxing)
 *fill*         0x00025e49        0x3 
 .rodata.etharp_get_entry.str1.4
                0x00025e4c       0x20 ./lwip/src/core/ipv4/etharp.o
 .rodata.etharp_output_to_arp_index.str1.4
                0x00025e6c       0x30 ./lwip/src/core/ipv4/etharp.o
 .rodata.etharp_query.str1.4
                0x00025e9c       0x5e ./lwip/src/core/ipv4/etharp.o
 *fill*         0x00025efa        0x2 
 .rodata.etharp_raw.str1.4
                0x00025efc       0x75 ./lwip/src/core/ipv4/etharp.o
                                 0x85 (size before relaxing)
 *fill*         0x00025f71        0x3 
 .rodata.etharp_update_arp_entry.str1.4
                0x00025f74       0x24 ./lwip/src/core/ipv4/etharp.o
 .rodata.icmp_input.str1.4
                0x00025f98       0x6a ./lwip/src/core/ipv4/icmp.o
 *fill*         0x00026002        0x2 
 .rodata.icmp_send_response.str1.4
                0x00026004       0x4c ./lwip/src/core/ipv4/icmp.o
                                 0x74 (size before relaxing)
 .rodata.ip4_output_if_src.str1.4
                0x00026050       0x55 ./lwip/src/core/ipv4/ip4.o
                                 0x7d (size before relaxing)
 *fill*         0x000260a5        0x3 
 .rodata.ip4addr_aton.str1.4
                0x000260a8       0x2e ./lwip/src/core/ipv4/ip4_addr.o
                                 0x58 (size before relaxing)
 *fill*         0x000260d6        0x2 
 .rodata.ip_addr_any
                0x000260d8        0x4 ./lwip/src/core/ipv4/ip4_addr.o
                0x000260d8                ip_addr_any
 .rodata.ip_addr_broadcast
                0x000260dc        0x4 ./lwip/src/core/ipv4/ip4_addr.o
                0x000260dc                ip_addr_broadcast
 .rodata.ip4_frag.str1.4
                0x000260e0       0x4b ./lwip/src/core/ipv4/ip4_frag.o
 *fill*         0x0002612b        0x1 
 .rodata.ip4_reass.str1.4
                0x0002612c       0x48 ./lwip/src/core/ipv4/ip4_frag.o
 .rodata.ip_frag_free_pbuf_custom_ref.str1.4
                0x00026174        0xa ./lwip/src/core/ipv4/ip4_frag.o
 .rodata.ip_reass_chain_frag_into_datagram_and_validate.str1.4
                0x00026174       0x8a ./lwip/src/core/ipv4/ip4_frag.o
 *fill*         0x000261fe        0x2 
 .rodata.ip_reass_dequeue_datagram.str1.4
                0x00026200       0x3d ./lwip/src/core/ipv4/ip4_frag.o
                                 0x68 (size before relaxing)
 *fill*         0x0002623d        0x3 
 .rodata.ip_reass_free_complete_datagram.str1.4
                0x00026240       0x62 ./lwip/src/core/ipv4/ip4_frag.o
 *fill*         0x000262a2        0x2 
 .rodata.ipfrag_free_pbuf_custom.str1.4
                0x000262a4        0xc ./lwip/src/core/ipv4/ip4_frag.o
 .rodata.ethbroadcast
                0x000262b0        0x6 ./lwip/src/netif/ethernet.o
                0x000262b0                ethbroadcast
 *fill*         0x000262b6        0x2 
 .rodata.ethernet_output.str1.4
                0x000262b8       0x51 ./lwip/src/netif/ethernet.o
                                 0x7c (size before relaxing)
 *fill*         0x00026309        0x3 
 .rodata.ethzero
                0x0002630c        0x6 ./lwip/src/netif/ethernet.o
                0x0002630c                ethzero
 *fill*         0x00026312        0x2 
 .rodata.os_mutex_def_lwip_sys_mutex
                0x00026314        0x4 ./lwip/system/OS/sys_arch.o
                0x00026314                os_mutex_def_lwip_sys_mutex
 .rodata.g_pi16MIIClockDiv
                0x00026318       0x18 C:/ti/TivaWare_C_Series-2.2.0.295/driverlib/gcc/libdriver.a(emac.o)
 .rodata.g_ppui32GPIOIntMapSnowflake
                0x00026330       0xd8 C:/ti/TivaWare_C_Series-2.2.0.295/driverlib/gcc/libdriver.a(gpio.o)
 .rodata.g_pui32GPIOBaseAddrs
                0x00026408       0x90 C:/ti/TivaWare_C_Series-2.2.0.295/driverlib/gcc/libdriver.a(gpio.o)
 .rodata.g_ppui32GPIOIntMapBlizzard
                0x00026498       0xc0 C:/ti/TivaWare_C_Series-2.2.0.295/driverlib/gcc/libdriver.a(gpio.o)
 .rodata.g_pui32Priority
                0x00026558       0x20 C:/ti/TivaWare_C_Series-2.2.0.295/driverlib/gcc/libdriver.a(interrupt.o)
 .rodata.g_pui32Dii16Regs
                0x00026578       0x14 C:/ti/TivaWare_C_Series-2.2.0.295/driverlib/gcc/libdriver.a(interrupt.o)
 .rodata.g_pui32PendRegs
                0x0002658c       0x14 C:/ti/TivaWare_C_Series-2.2.0.295/driverlib/gcc/libdriver.a(interrupt.o)
 .rodata.g_pui32Regs
                0x000265a0       0x9c C:/ti/TivaWare_C_Series-2.2.0.295/driverlib/gcc/libdriver.a(interrupt.o)
 .rodata.g_pui32EnRegs
                0x0002663c       0x14 C:/ti/TivaWare_C_Series-2.2.0.295/driverlib/gcc/libdriver.a(interrupt.o)
 .rodata.g_pui32UnpendRegs
                0x00026650       0x14 C:/ti/TivaWare_C_Series-2.2.0.295/driverlib/gcc/libdriver.a(interrupt.o)
 .rodata.g_pui32Crc32
                0x00026664      0x400 C:/ti/TivaWare_C_Series-2.2.0.295/driverlib/gcc/libdriver.a(sw_crc.o)
 .rodata.g_pui16Crc16
                0x00026a64      0x200 C:/ti/TivaWare_C_Series-2.2.0.295/driverlib/gcc/libdriver.a(sw_crc.o)
 .rodata.g_pui8Crc8CCITT
                0x00026c64      0x100 C:/ti/TivaWare_C_Series-2.2.0.295/driverlib/gcc/libdriver.a(sw_crc.o)
 .rodata.g_pppui32XTALtoVCO
                0x00026d64      0x1b0 C:/ti/TivaWare_C_Series-2.2.0.295/driverlib/gcc/libdriver.a(sysctl.o)
 .rodata.g_pui32VCOFrequencies
                0x00026f14        0x8 C:/ti/TivaWare_C_Series-2.2.0.295/driverlib/gcc/libdriver.a(sysctl.o)
 .rodata.g_sXTALtoMEMTIM
                0x00026f1c       0x30 C:/ti/TivaWare_C_Series-2.2.0.295/driverlib/gcc/libdriver.a(sysctl.o)
 .rodata.g_pui32Xtals
                0x00026f4c       0x6c C:/ti/TivaWare_C_Series-2.2.0.295/driverlib/gcc/libdriver.a(sysctl.o)
 .rodata._global_impure_ptr
                0x00026fb8        0x4 c:/ti/ccs1011/ccs/tools/compiler/gcc-arm-none-eabi-7-2017-q4-major-win32/bin/../lib/gcc/arm-none-eabi/7.2.1/../../../../arm-none-eabi/lib/thumb/v7e-m/fpv4-sp/hard\libg.a(lib_a-impure.o)
                0x00026fb8                _global_impure_ptr
 .rodata._setlocale_r.str1.4
                0x00026fbc        0xa c:/ti/ccs1011/ccs/tools/compiler/gcc-arm-none-eabi-7-2017-q4-major-win32/bin/../lib/gcc/arm-none-eabi/7.2.1/../../../../arm-none-eabi/lib/thumb/v7e-m/fpv4-sp/hard\libg.a(lib_a-locale.o)
                                  0xd (size before relaxing)
 *fill*         0x00026fc6        0x2 
 .rodata.str1.4
                0x00026fc8        0x2 c:/ti/ccs1011/ccs/tools/compiler/gcc-arm-none-eabi-7-2017-q4-major-win32/bin/../lib/gcc/arm-none-eabi/7.2.1/../../../../arm-none-eabi/lib/thumb/v7e-m/fpv4-sp/hard\libg.a(lib_a-locale.o)
 *fill*         0x00026fca        0x2 
 .rodata._svfprintf_r.str1.4
                0x00026fcc       0x3f c:/ti/ccs1011/ccs/tools/compiler/gcc-arm-none-eabi-7-2017-q4-major-win32/bin/../lib/gcc/arm-none-eabi/7.2.1/../../../../arm-none-eabi/lib/thumb/v7e-m/fpv4-sp/hard\libg.a(lib_a-svfprintf.o)
                                 0x42 (size before relaxing)
 *fill*         0x0002700b        0x1 
 .rodata.blanks.8551
                0x0002700c       0x10 c:/ti/ccs1011/ccs/tools/compiler/gcc-arm-none-eabi-7-2017-q4-major-win32/bin/../lib/gcc/arm-none-eabi/7.2.1/../../../../arm-none-eabi/lib/thumb/v7e-m/fpv4-sp/hard\libg.a(lib_a-svfprintf.o)
 .rodata.zeroes.8552
                0x0002701c       0x10 c:/ti/ccs1011/ccs/tools/compiler/gcc-arm-none-eabi-7-2017-q4-major-win32/bin/../lib/gcc/arm-none-eabi/7.2.1/../../../../arm-none-eabi/lib/thumb/v7e-m/fpv4-sp/hard\libg.a(lib_a-svfprintf.o)
 .rodata._vfprintf_r.str1.4
                0x0002702c       0x42 c:/ti/ccs1011/ccs/tools/compiler/gcc-arm-none-eabi-7-2017-q4-major-win32/bin/../lib/gcc/arm-none-eabi/7.2.1/../../../../arm-none-eabi/lib/thumb/v7e-m/fpv4-sp/hard\libg.a(lib_a-vfprintf.o)
 .rodata.blanks.8566
                0x0002702c       0x10 c:/ti/ccs1011/ccs/tools/compiler/gcc-arm-none-eabi-7-2017-q4-major-win32/bin/../lib/gcc/arm-none-eabi/7.2.1/../../../../arm-none-eabi/lib/thumb/v7e-m/fpv4-sp/hard\libg.a(lib_a-vfprintf.o)
 .rodata.zeroes.8567
                0x0002703c       0x10 c:/ti/ccs1011/ccs/tools/compiler/gcc-arm-none-eabi-7-2017-q4-major-win32/bin/../lib/gcc/arm-none-eabi/7.2.1/../../../../arm-none-eabi/lib/thumb/v7e-m/fpv4-sp/hard\libg.a(lib_a-vfprintf.o)
 .rodata._ctype_
                0x0002704c      0x101 c:/ti/ccs1011/ccs/tools/compiler/gcc-arm-none-eabi-7-2017-q4-major-win32/bin/../lib/gcc/arm-none-eabi/7.2.1/../../../../arm-none-eabi/lib/thumb/v7e-m/fpv4-sp/hard\libg.a(lib_a-ctype_.o)
                0x0002704c                _ctype_
 *fill*         0x0002714d        0x3 
 .rodata._dtoa_r.str1.4
                0x00027150       0x10 c:/ti/ccs1011/ccs/tools/compiler/gcc-arm-none-eabi-7-2017-q4-major-win32/bin/../lib/gcc/arm-none-eabi/7.2.1/../../../../arm-none-eabi/lib/thumb/v7e-m/fpv4-sp/hard\libg.a(lib_a-dtoa.o)
                                 0x12 (size before relaxing)
 .rodata.__mprec_bigtens
                0x00027160       0x28 c:/ti/ccs1011/ccs/tools/compiler/gcc-arm-none-eabi-7-2017-q4-major-win32/bin/../lib/gcc/arm-none-eabi/7.2.1/../../../../arm-none-eabi/lib/thumb/v7e-m/fpv4-sp/hard\libg.a(lib_a-mprec.o)
                0x00027160                __mprec_bigtens
 .rodata.__mprec_tens
                0x00027188       0xc8 c:/ti/ccs1011/ccs/tools/compiler/gcc-arm-none-eabi-7-2017-q4-major-win32/bin/../lib/gcc/arm-none-eabi/7.2.1/../../../../arm-none-eabi/lib/thumb/v7e-m/fpv4-sp/hard\libg.a(lib_a-mprec.o)
                0x00027188                __mprec_tens
 .rodata.__mprec_tinytens
                0x00027250       0x28 c:/ti/ccs1011/ccs/tools/compiler/gcc-arm-none-eabi-7-2017-q4-major-win32/bin/../lib/gcc/arm-none-eabi/7.2.1/../../../../arm-none-eabi/lib/thumb/v7e-m/fpv4-sp/hard\libg.a(lib_a-mprec.o)
                0x00027250                __mprec_tinytens
 .rodata.p05.7367
                0x00027278        0xc c:/ti/ccs1011/ccs/tools/compiler/gcc-arm-none-eabi-7-2017-q4-major-win32/bin/../lib/gcc/arm-none-eabi/7.2.1/../../../../arm-none-eabi/lib/thumb/v7e-m/fpv4-sp/hard\libg.a(lib_a-mprec.o)
 .rodata._svfiprintf_r.str1.4
                0x00027284       0x2f c:/ti/ccs1011/ccs/tools/compiler/gcc-arm-none-eabi-7-2017-q4-major-win32/bin/../lib/gcc/arm-none-eabi/7.2.1/../../../../arm-none-eabi/lib/thumb/v7e-m/fpv4-sp/hard\libg.a(lib_a-svfiprintf.o)
 .rodata.blanks.8531
                0x00027284       0x10 c:/ti/ccs1011/ccs/tools/compiler/gcc-arm-none-eabi-7-2017-q4-major-win32/bin/../lib/gcc/arm-none-eabi/7.2.1/../../../../arm-none-eabi/lib/thumb/v7e-m/fpv4-sp/hard\libg.a(lib_a-svfiprintf.o)
 .rodata.zeroes.8532
                0x00027294       0x10 c:/ti/ccs1011/ccs/tools/compiler/gcc-arm-none-eabi-7-2017-q4-major-win32/bin/../lib/gcc/arm-none-eabi/7.2.1/../../../../arm-none-eabi/lib/thumb/v7e-m/fpv4-sp/hard\libg.a(lib_a-svfiprintf.o)
 .rodata._vfiprintf_r.str1.4
                0x000272a4       0x2f c:/ti/ccs1011/ccs/tools/compiler/gcc-arm-none-eabi-7-2017-q4-major-win32/bin/../lib/gcc/arm-none-eabi/7.2.1/../../../../arm-none-eabi/lib/thumb/v7e-m/fpv4-sp/hard\libg.a(lib_a-vfiprintf.o)
 .rodata.blanks.8545
                0x000272a4       0x10 c:/ti/ccs1011/ccs/tools/compiler/gcc-arm-none-eabi-7-2017-q4-major-win32/bin/../lib/gcc/arm-none-eabi/7.2.1/../../../../arm-none-eabi/lib/thumb/v7e-m/fpv4-sp/hard\libg.a(lib_a-vfiprintf.o)
 .rodata.zeroes.8546
                0x000272b4       0x10 c:/ti/ccs1011/ccs/tools/compiler/gcc-arm-none-eabi-7-2017-q4-major-win32/bin/../lib/gcc/arm-none-eabi/7.2.1/../../../../arm-none-eabi/lib/thumb/v7e-m/fpv4-sp/hard\libg.a(lib_a-vfiprintf.o)

.eh_frame       0x000272c4        0x4
 .eh_frame      0x000272c4        0x0 c:/ti/ccs1011/ccs/tools/compiler/gcc-arm-none-eabi-7-2017-q4-major-win32/bin/../lib/gcc/arm-none-eabi/7.2.1/thumb/v7e-m/fpv4-sp/hard/crtbegin.o
 .eh_frame      0x000272c4        0x4 c:/ti/ccs1011/ccs/tools/compiler/gcc-arm-none-eabi-7-2017-q4-major-win32/bin/../lib/gcc/arm-none-eabi/7.2.1/thumb/v7e-m/fpv4-sp/hard/crtend.o

.data           0x20000000      0x9e8 load address 0x000272c8
                0x000272c8                __data_load__ = LOADADDR (.data)
                0x20000000                __data_start__ = .
 *(.data)
 .data          0x20000000        0x0 c:/ti/ccs1011/ccs/tools/compiler/gcc-arm-none-eabi-7-2017-q4-major-win32/bin/../lib/gcc/arm-none-eabi/7.2.1/thumb/v7e-m/fpv4-sp/hard/crti.o
 .data          0x20000000        0x4 c:/ti/ccs1011/ccs/tools/compiler/gcc-arm-none-eabi-7-2017-q4-major-win32/bin/../lib/gcc/arm-none-eabi/7.2.1/thumb/v7e-m/fpv4-sp/hard/crtbegin.o
                0x20000000                __dso_handle
 .data          0x20000004        0x0 c:/ti/ccs1011/ccs/tools/compiler/gcc-arm-none-eabi-7-2017-q4-major-win32/bin/../lib/gcc/arm-none-eabi/7.2.1/../../../../arm-none-eabi/lib/thumb/v7e-m/fpv4-sp/hard/crt0.o
 .data          0x20000004        0x0 ./main.o
 .data          0x20000004        0x0 ./tm4c1294ncpdt_startup_ccs_gcc.o
 .data          0x20000004        0x0 ./Drivers/pinout.o
 .data          0x20000004        0x0 ./FreeRTOS/CMSIS_RTOS/cmsis_os.o
 .data          0x20000004        0x0 ./FreeRTOS/croutine.o
 .data          0x20000004        0x0 ./FreeRTOS/event_groups.o
 .data          0x20000004        0x0 ./FreeRTOS/list.o
 .data          0x20000004        0x0 ./FreeRTOS/queue.o
 .data          0x20000004        0x0 ./FreeRTOS/stream_buffer.o
 .data          0x20000004        0x0 ./FreeRTOS/tasks.o
 .data          0x20000004        0x0 ./FreeRTOS/timers.o
 .data          0x20000004        0x0 ./FreeRTOS/portable/GCC/ARM_CM4F/port.o
 .data          0x20000004        0x0 ./FreeRTOS/portable/MemMang/heap_4.o
 .data          0x20000004        0x0 ./lwip/apps/httpserver_raw/fs.o
 .data          0x20000004        0x0 ./lwip/apps/httpserver_raw/httpd.o
 .data          0x20000004        0x0 ./lwip/lwiplib.o
 .data          0x20000004        0x0 ./lwip/port/tiva-tm4c129.o
 .data          0x20000004        0x0 ./lwip/src/api/api_lib.o
 .data          0x20000004        0x0 ./lwip/src/api/api_msg.o
 .data          0x20000004        0x0 ./lwip/src/api/err.o
 .data          0x20000004        0x0 ./lwip/src/api/if_api.o
 .data          0x20000004        0x0 ./lwip/src/api/netbuf.o
 .data          0x20000004        0x0 ./lwip/src/api/netdb.o
 .data          0x20000004        0x0 ./lwip/src/api/netifapi.o
 .data          0x20000004        0x0 ./lwip/src/api/sockets.o
 .data          0x20000004        0x0 ./lwip/src/api/tcpip.o
 .data          0x20000004        0x0 ./lwip/src/core/altcp.o
 .data          0x20000004        0x0 ./lwip/src/core/altcp_alloc.o
 .data          0x20000004        0x0 ./lwip/src/core/altcp_tcp.o
 .data          0x20000004        0x0 ./lwip/src/core/def.o
 .data          0x20000004        0x0 ./lwip/src/core/dns.o
 .data          0x20000004        0x0 ./lwip/src/core/inet_chksum.o
 .data          0x20000004        0x0 ./lwip/src/core/init.o
 .data          0x20000004        0x0 ./lwip/src/core/ip.o
 .data          0x20000004        0x0 ./lwip/src/core/mem.o
 .data          0x20000004        0x0 ./lwip/src/core/memp.o
 .data          0x20000004        0x0 ./lwip/src/core/netif.o
 .data          0x20000004        0x0 ./lwip/src/core/pbuf.o
 .data          0x20000004        0x0 ./lwip/src/core/raw.o
 .data          0x20000004        0x0 ./lwip/src/core/stats.o
 .data          0x20000004        0x0 ./lwip/src/core/sys.o
 .data          0x20000004        0x0 ./lwip/src/core/tcp.o
 .data          0x20000004        0x0 ./lwip/src/core/tcp_in.o
 .data          0x20000004        0x0 ./lwip/src/core/tcp_out.o
 .data          0x20000004        0x0 ./lwip/src/core/timeouts.o
 .data          0x20000004        0x0 ./lwip/src/core/udp.o
 .data          0x20000004        0x0 ./lwip/src/core/ipv4/autoip.o
 .data          0x20000004        0x0 ./lwip/src/core/ipv4/dhcp.o
 .data          0x20000004        0x0 ./lwip/src/core/ipv4/etharp.o
 .data          0x20000004        0x0 ./lwip/src/core/ipv4/icmp.o
 .data          0x20000004        0x0 ./lwip/src/core/ipv4/igmp.o
 .data          0x20000004        0x0 ./lwip/src/core/ipv4/ip4.o
 .data          0x20000004        0x0 ./lwip/src/core/ipv4/ip4_addr.o
 .data          0x20000004        0x0 ./lwip/src/core/ipv4/ip4_frag.o
 .data          0x20000004        0x0 ./lwip/src/netif/ethernet.o
 .data          0x20000004        0x0 ./lwip/src/netif/ppp/auth.o
 .data          0x20000004        0x0 ./lwip/src/netif/ppp/ccp.o
 .data          0x20000004        0x0 ./lwip/src/netif/ppp/chap-md5.o
 .data          0x20000004        0x0 ./lwip/src/netif/ppp/chap-new.o
 .data          0x20000004        0x0 ./lwip/src/netif/ppp/chap_ms.o
 .data          0x20000004        0x0 ./lwip/src/netif/ppp/demand.o
 .data          0x20000004        0x0 ./lwip/src/netif/ppp/eap.o
 .data          0x20000004        0x0 ./lwip/src/netif/ppp/ecp.o
 .data          0x20000004        0x0 ./lwip/src/netif/ppp/eui64.o
 .data          0x20000004        0x0 ./lwip/src/netif/ppp/fsm.o
 .data          0x20000004        0x0 ./lwip/src/netif/ppp/ipcp.o
 .data          0x20000004        0x0 ./lwip/src/netif/ppp/ipv6cp.o
 .data          0x20000004        0x0 ./lwip/src/netif/ppp/lcp.o
 .data          0x20000004        0x0 ./lwip/src/netif/ppp/magic.o
 .data          0x20000004        0x0 ./lwip/src/netif/ppp/mppe.o
 .data          0x20000004        0x0 ./lwip/src/netif/ppp/multilink.o
 .data          0x20000004        0x0 ./lwip/src/netif/ppp/ppp.o
 .data          0x20000004        0x0 ./lwip/src/netif/ppp/pppapi.o
 .data          0x20000004        0x0 ./lwip/src/netif/ppp/pppcrypt.o
 .data          0x20000004        0x0 ./lwip/src/netif/ppp/pppoe.o
 .data          0x20000004        0x0 ./lwip/src/netif/ppp/pppol2tp.o
 .data          0x20000004        0x0 ./lwip/src/netif/ppp/pppos.o
 .data          0x20000004        0x0 ./lwip/src/netif/ppp/upap.o
 .data          0x20000004        0x0 ./lwip/src/netif/ppp/utils.o
 .data          0x20000004        0x0 ./lwip/src/netif/ppp/vj.o
 .data          0x20000004        0x0 ./lwip/src/netif/ppp/polarssl/arc4.o
 .data          0x20000004        0x0 ./lwip/src/netif/ppp/polarssl/des.o
 .data          0x20000004        0x0 ./lwip/src/netif/ppp/polarssl/md4.o
 .data          0x20000004        0x0 ./lwip/src/netif/ppp/polarssl/md5.o
 .data          0x20000004        0x0 ./lwip/src/netif/ppp/polarssl/sha1.o
 .data          0x20000004        0x0 ./lwip/system/OS/sys_arch.o
 .data          0x20000004        0x0 C:/ti/TivaWare_C_Series-2.2.0.295/driverlib/gcc/libdriver.a(emac.o)
 .data          0x20000004        0x0 C:/ti/TivaWare_C_Series-2.2.0.295/driverlib/gcc/libdriver.a(gpio.o)
 .data          0x20000004        0x0 C:/ti/TivaWare_C_Series-2.2.0.295/driverlib/gcc/libdriver.a(interrupt.o)
 .data          0x20000004        0x0 C:/ti/TivaWare_C_Series-2.2.0.295/driverlib/gcc/libdriver.a(sw_crc.o)
 .data          0x20000004        0x0 C:/ti/TivaWare_C_Series-2.2.0.295/driverlib/gcc/libdriver.a(sysctl.o)
 .data          0x20000004        0x0 C:/ti/TivaWare_C_Series-2.2.0.295/driverlib/gcc/libdriver.a(cpu.o)
 .data          0x20000004        0x0 c:/ti/ccs1011/ccs/tools/compiler/gcc-arm-none-eabi-7-2017-q4-major-win32/bin/../lib/gcc/arm-none-eabi/7.2.1/../../../../arm-none-eabi/lib/thumb/v7e-m/fpv4-sp/hard\libg.a(lib_a-atoi.o)
 .data          0x20000004        0x0 c:/ti/ccs1011/ccs/tools/compiler/gcc-arm-none-eabi-7-2017-q4-major-win32/bin/../lib/gcc/arm-none-eabi/7.2.1/../../../../arm-none-eabi/lib/thumb/v7e-m/fpv4-sp/hard\libg.a(lib_a-exit.o)
 .data          0x20000004        0x0 c:/ti/ccs1011/ccs/tools/compiler/gcc-arm-none-eabi-7-2017-q4-major-win32/bin/../lib/gcc/arm-none-eabi/7.2.1/../../../../arm-none-eabi/lib/thumb/v7e-m/fpv4-sp/hard\libg.a(lib_a-impure.o)
 .data          0x20000004        0x0 c:/ti/ccs1011/ccs/tools/compiler/gcc-arm-none-eabi-7-2017-q4-major-win32/bin/../lib/gcc/arm-none-eabi/7.2.1/../../../../arm-none-eabi/lib/thumb/v7e-m/fpv4-sp/hard\libg.a(lib_a-init.o)
 .data          0x20000004        0x0 c:/ti/ccs1011/ccs/tools/compiler/gcc-arm-none-eabi-7-2017-q4-major-win32/bin/../lib/gcc/arm-none-eabi/7.2.1/../../../../arm-none-eabi/lib/thumb/v7e-m/fpv4-sp/hard\libg.a(lib_a-locale.o)
 .data          0x20000004        0x0 c:/ti/ccs1011/ccs/tools/compiler/gcc-arm-none-eabi-7-2017-q4-major-win32/bin/../lib/gcc/arm-none-eabi/7.2.1/../../../../arm-none-eabi/lib/thumb/v7e-m/fpv4-sp/hard\libg.a(lib_a-mbtowc_r.o)
 .data          0x20000004        0x0 c:/ti/ccs1011/ccs/tools/compiler/gcc-arm-none-eabi-7-2017-q4-major-win32/bin/../lib/gcc/arm-none-eabi/7.2.1/../../../../arm-none-eabi/lib/thumb/v7e-m/fpv4-sp/hard\libg.a(lib_a-memcmp.o)
 .data          0x20000004        0x0 c:/ti/ccs1011/ccs/tools/compiler/gcc-arm-none-eabi-7-2017-q4-major-win32/bin/../lib/gcc/arm-none-eabi/7.2.1/../../../../arm-none-eabi/lib/thumb/v7e-m/fpv4-sp/hard\libg.a(lib_a-memcpy.o)
 .data          0x20000004        0x0 c:/ti/ccs1011/ccs/tools/compiler/gcc-arm-none-eabi-7-2017-q4-major-win32/bin/../lib/gcc/arm-none-eabi/7.2.1/../../../../arm-none-eabi/lib/thumb/v7e-m/fpv4-sp/hard\libg.a(lib_a-memmove.o)
 .data          0x20000004        0x0 c:/ti/ccs1011/ccs/tools/compiler/gcc-arm-none-eabi-7-2017-q4-major-win32/bin/../lib/gcc/arm-none-eabi/7.2.1/../../../../arm-none-eabi/lib/thumb/v7e-m/fpv4-sp/hard\libg.a(lib_a-memset.o)
 .data          0x20000004        0x0 c:/ti/ccs1011/ccs/tools/compiler/gcc-arm-none-eabi-7-2017-q4-major-win32/bin/../lib/gcc/arm-none-eabi/7.2.1/../../../../arm-none-eabi/lib/thumb/v7e-m/fpv4-sp/hard\libg.a(lib_a-printf.o)
 .data          0x20000004        0x0 c:/ti/ccs1011/ccs/tools/compiler/gcc-arm-none-eabi-7-2017-q4-major-win32/bin/../lib/gcc/arm-none-eabi/7.2.1/../../../../arm-none-eabi/lib/thumb/v7e-m/fpv4-sp/hard\libg.a(lib_a-rand.o)
 .data          0x20000004        0x0 c:/ti/ccs1011/ccs/tools/compiler/gcc-arm-none-eabi-7-2017-q4-major-win32/bin/../lib/gcc/arm-none-eabi/7.2.1/../../../../arm-none-eabi/lib/thumb/v7e-m/fpv4-sp/hard\libg.a(lib_a-reent.o)
 .data          0x20000004        0x0 c:/ti/ccs1011/ccs/tools/compiler/gcc-arm-none-eabi-7-2017-q4-major-win32/bin/../lib/gcc/arm-none-eabi/7.2.1/../../../../arm-none-eabi/lib/thumb/v7e-m/fpv4-sp/hard\libg.a(lib_a-sprintf.o)
 .data          0x20000004        0x0 c:/ti/ccs1011/ccs/tools/compiler/gcc-arm-none-eabi-7-2017-q4-major-win32/bin/../lib/gcc/arm-none-eabi/7.2.1/../../../../arm-none-eabi/lib/thumb/v7e-m/fpv4-sp/hard\libg.a(lib_a-strchr.o)
 .data          0x20000004        0x0 c:/ti/ccs1011/ccs/tools/compiler/gcc-arm-none-eabi-7-2017-q4-major-win32/bin/../lib/gcc/arm-none-eabi/7.2.1/../../../../arm-none-eabi/lib/thumb/v7e-m/fpv4-sp/hard\libg.a(lib_a-strcmp.o)
 .data          0x20000004        0x0 c:/ti/ccs1011/ccs/tools/compiler/gcc-arm-none-eabi-7-2017-q4-major-win32/bin/../lib/gcc/arm-none-eabi/7.2.1/../../../../arm-none-eabi/lib/thumb/v7e-m/fpv4-sp/hard\libg.a(lib_a-strlen.o)
 .data          0x20000004        0x0 c:/ti/ccs1011/ccs/tools/compiler/gcc-arm-none-eabi-7-2017-q4-major-win32/bin/../lib/gcc/arm-none-eabi/7.2.1/../../../../arm-none-eabi/lib/thumb/v7e-m/fpv4-sp/hard\libg.a(lib_a-strncmp.o)
 .data          0x20000004        0x0 c:/ti/ccs1011/ccs/tools/compiler/gcc-arm-none-eabi-7-2017-q4-major-win32/bin/../lib/gcc/arm-none-eabi/7.2.1/../../../../arm-none-eabi/lib/thumb/v7e-m/fpv4-sp/hard\libg.a(lib_a-strncpy.o)
 .data          0x20000004        0x0 c:/ti/ccs1011/ccs/tools/compiler/gcc-arm-none-eabi-7-2017-q4-major-win32/bin/../lib/gcc/arm-none-eabi/7.2.1/../../../../arm-none-eabi/lib/thumb/v7e-m/fpv4-sp/hard\libg.a(lib_a-strstr.o)
 .data          0x20000004        0x0 c:/ti/ccs1011/ccs/tools/compiler/gcc-arm-none-eabi-7-2017-q4-major-win32/bin/../lib/gcc/arm-none-eabi/7.2.1/../../../../arm-none-eabi/lib/thumb/v7e-m/fpv4-sp/hard\libg.a(lib_a-strtol.o)
 .data          0x20000004        0x0 c:/ti/ccs1011/ccs/tools/compiler/gcc-arm-none-eabi-7-2017-q4-major-win32/bin/../lib/gcc/arm-none-eabi/7.2.1/../../../../arm-none-eabi/lib/thumb/v7e-m/fpv4-sp/hard\libg.a(lib_a-svfprintf.o)
 .data          0x20000004        0x0 c:/ti/ccs1011/ccs/tools/compiler/gcc-arm-none-eabi-7-2017-q4-major-win32/bin/../lib/gcc/arm-none-eabi/7.2.1/../../../../arm-none-eabi/lib/thumb/v7e-m/fpv4-sp/hard\libg.a(lib_a-vfprintf.o)
 .data          0x20000004        0x0 c:/ti/ccs1011/ccs/tools/compiler/gcc-arm-none-eabi-7-2017-q4-major-win32/bin/../lib/gcc/arm-none-eabi/7.2.1/../../../../arm-none-eabi/lib/thumb/v7e-m/fpv4-sp/hard\libg.a(lib_a-wctomb_r.o)
 .data          0x20000004        0x0 c:/ti/ccs1011/ccs/tools/compiler/gcc-arm-none-eabi-7-2017-q4-major-win32/bin/../lib/gcc/arm-none-eabi/7.2.1/../../../../arm-none-eabi/lib/thumb/v7e-m/fpv4-sp/hard\libg.a(lib_a-wsetup.o)
 .data          0x20000004        0x0 c:/ti/ccs1011/ccs/tools/compiler/gcc-arm-none-eabi-7-2017-q4-major-win32/bin/../lib/gcc/arm-none-eabi/7.2.1/../../../../arm-none-eabi/lib/thumb/v7e-m/fpv4-sp/hard\libg.a(lib_a-__call_atexit.o)
 .data          0x20000004        0x0 c:/ti/ccs1011/ccs/tools/compiler/gcc-arm-none-eabi-7-2017-q4-major-win32/bin/../lib/gcc/arm-none-eabi/7.2.1/../../../../arm-none-eabi/lib/thumb/v7e-m/fpv4-sp/hard\libg.a(lib_a-atexit.o)
 .data          0x20000004        0x0 c:/ti/ccs1011/ccs/tools/compiler/gcc-arm-none-eabi-7-2017-q4-major-win32/bin/../lib/gcc/arm-none-eabi/7.2.1/../../../../arm-none-eabi/lib/thumb/v7e-m/fpv4-sp/hard\libg.a(lib_a-ctype_.o)
 .data          0x20000004        0x0 c:/ti/ccs1011/ccs/tools/compiler/gcc-arm-none-eabi-7-2017-q4-major-win32/bin/../lib/gcc/arm-none-eabi/7.2.1/../../../../arm-none-eabi/lib/thumb/v7e-m/fpv4-sp/hard\libg.a(lib_a-dtoa.o)
 .data          0x20000004        0x0 c:/ti/ccs1011/ccs/tools/compiler/gcc-arm-none-eabi-7-2017-q4-major-win32/bin/../lib/gcc/arm-none-eabi/7.2.1/../../../../arm-none-eabi/lib/thumb/v7e-m/fpv4-sp/hard\libg.a(lib_a-fflush.o)
 .data          0x20000004        0x0 c:/ti/ccs1011/ccs/tools/compiler/gcc-arm-none-eabi-7-2017-q4-major-win32/bin/../lib/gcc/arm-none-eabi/7.2.1/../../../../arm-none-eabi/lib/thumb/v7e-m/fpv4-sp/hard\libg.a(lib_a-findfp.o)
 .data          0x20000004        0x0 c:/ti/ccs1011/ccs/tools/compiler/gcc-arm-none-eabi-7-2017-q4-major-win32/bin/../lib/gcc/arm-none-eabi/7.2.1/../../../../arm-none-eabi/lib/thumb/v7e-m/fpv4-sp/hard\libg.a(lib_a-fini.o)
 .data          0x20000004        0x0 c:/ti/ccs1011/ccs/tools/compiler/gcc-arm-none-eabi-7-2017-q4-major-win32/bin/../lib/gcc/arm-none-eabi/7.2.1/../../../../arm-none-eabi/lib/thumb/v7e-m/fpv4-sp/hard\libg.a(lib_a-freer.o)
 .data          0x20000004        0x0 c:/ti/ccs1011/ccs/tools/compiler/gcc-arm-none-eabi-7-2017-q4-major-win32/bin/../lib/gcc/arm-none-eabi/7.2.1/../../../../arm-none-eabi/lib/thumb/v7e-m/fpv4-sp/hard\libg.a(lib_a-fwalk.o)
 .data          0x20000004        0x0 c:/ti/ccs1011/ccs/tools/compiler/gcc-arm-none-eabi-7-2017-q4-major-win32/bin/../lib/gcc/arm-none-eabi/7.2.1/../../../../arm-none-eabi/lib/thumb/v7e-m/fpv4-sp/hard\libg.a(lib_a-localeconv.o)
 .data          0x20000004        0x0 c:/ti/ccs1011/ccs/tools/compiler/gcc-arm-none-eabi-7-2017-q4-major-win32/bin/../lib/gcc/arm-none-eabi/7.2.1/../../../../arm-none-eabi/lib/thumb/v7e-m/fpv4-sp/hard\libg.a(lib_a-lock.o)
 .data          0x20000004        0x0 c:/ti/ccs1011/ccs/tools/compiler/gcc-arm-none-eabi-7-2017-q4-major-win32/bin/../lib/gcc/arm-none-eabi/7.2.1/../../../../arm-none-eabi/lib/thumb/v7e-m/fpv4-sp/hard\libg.a(lib_a-makebuf.o)
 .data          0x20000004        0x0 c:/ti/ccs1011/ccs/tools/compiler/gcc-arm-none-eabi-7-2017-q4-major-win32/bin/../lib/gcc/arm-none-eabi/7.2.1/../../../../arm-none-eabi/lib/thumb/v7e-m/fpv4-sp/hard\libg.a(lib_a-mallocr.o)
 .data          0x20000004        0x0 c:/ti/ccs1011/ccs/tools/compiler/gcc-arm-none-eabi-7-2017-q4-major-win32/bin/../lib/gcc/arm-none-eabi/7.2.1/../../../../arm-none-eabi/lib/thumb/v7e-m/fpv4-sp/hard\libg.a(lib_a-memchr.o)
 .data          0x20000004        0x0 c:/ti/ccs1011/ccs/tools/compiler/gcc-arm-none-eabi-7-2017-q4-major-win32/bin/../lib/gcc/arm-none-eabi/7.2.1/../../../../arm-none-eabi/lib/thumb/v7e-m/fpv4-sp/hard\libg.a(lib_a-mlock.o)
 .data          0x20000004        0x0 c:/ti/ccs1011/ccs/tools/compiler/gcc-arm-none-eabi-7-2017-q4-major-win32/bin/../lib/gcc/arm-none-eabi/7.2.1/../../../../arm-none-eabi/lib/thumb/v7e-m/fpv4-sp/hard\libg.a(lib_a-mprec.o)
 .data          0x20000004        0x0 c:/ti/ccs1011/ccs/tools/compiler/gcc-arm-none-eabi-7-2017-q4-major-win32/bin/../lib/gcc/arm-none-eabi/7.2.1/../../../../arm-none-eabi/lib/thumb/v7e-m/fpv4-sp/hard\libg.a(lib_a-sbrkr.o)
 .data          0x20000004        0x0 c:/ti/ccs1011/ccs/tools/compiler/gcc-arm-none-eabi-7-2017-q4-major-win32/bin/../lib/gcc/arm-none-eabi/7.2.1/../../../../arm-none-eabi/lib/thumb/v7e-m/fpv4-sp/hard\libg.a(lib_a-stdio.o)
 .data          0x20000004        0x0 c:/ti/ccs1011/ccs/tools/compiler/gcc-arm-none-eabi-7-2017-q4-major-win32/bin/../lib/gcc/arm-none-eabi/7.2.1/../../../../arm-none-eabi/lib/thumb/v7e-m/fpv4-sp/hard\libg.a(lib_a-svfiprintf.o)
 .data          0x20000004        0x0 c:/ti/ccs1011/ccs/tools/compiler/gcc-arm-none-eabi-7-2017-q4-major-win32/bin/../lib/gcc/arm-none-eabi/7.2.1/../../../../arm-none-eabi/lib/thumb/v7e-m/fpv4-sp/hard\libg.a(lib_a-vfiprintf.o)
 .data          0x20000004        0x0 c:/ti/ccs1011/ccs/tools/compiler/gcc-arm-none-eabi-7-2017-q4-major-win32/bin/../lib/gcc/arm-none-eabi/7.2.1/../../../../arm-none-eabi/lib/thumb/v7e-m/fpv4-sp/hard\libg.a(lib_a-writer.o)
 .data          0x20000004        0x0 c:/ti/ccs1011/ccs/tools/compiler/gcc-arm-none-eabi-7-2017-q4-major-win32/bin/../lib/gcc/arm-none-eabi/7.2.1/../../../../arm-none-eabi/lib/thumb/v7e-m/fpv4-sp/hard\libg.a(lib_a-__atexit.o)
 .data          0x20000004        0x0 c:/ti/ccs1011/ccs/tools/compiler/gcc-arm-none-eabi-7-2017-q4-major-win32/bin/../lib/gcc/arm-none-eabi/7.2.1/../../../../arm-none-eabi/lib/thumb/v7e-m/fpv4-sp/hard\libg.a(lib_a-callocr.o)
 .data          0x20000004        0x0 c:/ti/ccs1011/ccs/tools/compiler/gcc-arm-none-eabi-7-2017-q4-major-win32/bin/../lib/gcc/arm-none-eabi/7.2.1/../../../../arm-none-eabi/lib/thumb/v7e-m/fpv4-sp/hard\libg.a(lib_a-closer.o)
 .data          0x20000004        0x0 c:/ti/ccs1011/ccs/tools/compiler/gcc-arm-none-eabi-7-2017-q4-major-win32/bin/../lib/gcc/arm-none-eabi/7.2.1/../../../../arm-none-eabi/lib/thumb/v7e-m/fpv4-sp/hard\libg.a(lib_a-fclose.o)
 .data          0x20000004        0x0 c:/ti/ccs1011/ccs/tools/compiler/gcc-arm-none-eabi-7-2017-q4-major-win32/bin/../lib/gcc/arm-none-eabi/7.2.1/../../../../arm-none-eabi/lib/thumb/v7e-m/fpv4-sp/hard\libg.a(lib_a-fputwc.o)
 .data          0x20000004        0x0 c:/ti/ccs1011/ccs/tools/compiler/gcc-arm-none-eabi-7-2017-q4-major-win32/bin/../lib/gcc/arm-none-eabi/7.2.1/../../../../arm-none-eabi/lib/thumb/v7e-m/fpv4-sp/hard\libg.a(lib_a-fstatr.o)
 .data          0x20000004        0x0 c:/ti/ccs1011/ccs/tools/compiler/gcc-arm-none-eabi-7-2017-q4-major-win32/bin/../lib/gcc/arm-none-eabi/7.2.1/../../../../arm-none-eabi/lib/thumb/v7e-m/fpv4-sp/hard\libg.a(lib_a-fvwrite.o)
 .data          0x20000004        0x0 c:/ti/ccs1011/ccs/tools/compiler/gcc-arm-none-eabi-7-2017-q4-major-win32/bin/../lib/gcc/arm-none-eabi/7.2.1/../../../../arm-none-eabi/lib/thumb/v7e-m/fpv4-sp/hard\libg.a(lib_a-isattyr.o)
 .data          0x20000004        0x0 c:/ti/ccs1011/ccs/tools/compiler/gcc-arm-none-eabi-7-2017-q4-major-win32/bin/../lib/gcc/arm-none-eabi/7.2.1/../../../../arm-none-eabi/lib/thumb/v7e-m/fpv4-sp/hard\libg.a(lib_a-lseekr.o)
 .data          0x20000004        0x0 c:/ti/ccs1011/ccs/tools/compiler/gcc-arm-none-eabi-7-2017-q4-major-win32/bin/../lib/gcc/arm-none-eabi/7.2.1/../../../../arm-none-eabi/lib/thumb/v7e-m/fpv4-sp/hard\libg.a(lib_a-readr.o)
 .data          0x20000004        0x0 c:/ti/ccs1011/ccs/tools/compiler/gcc-arm-none-eabi-7-2017-q4-major-win32/bin/../lib/gcc/arm-none-eabi/7.2.1/../../../../arm-none-eabi/lib/thumb/v7e-m/fpv4-sp/hard\libg.a(lib_a-reallocr.o)
 .data          0x20000004        0x0 c:/ti/ccs1011/ccs/tools/compiler/gcc-arm-none-eabi-7-2017-q4-major-win32/bin/../lib/gcc/arm-none-eabi/7.2.1/../../../../arm-none-eabi/lib/thumb/v7e-m/fpv4-sp/hard\libg.a(lib_a-wbuf.o)
 .data          0x20000004        0x0 c:/ti/ccs1011/ccs/tools/compiler/gcc-arm-none-eabi-7-2017-q4-major-win32/bin/../lib/gcc/arm-none-eabi/7.2.1/../../../../arm-none-eabi/lib/thumb/v7e-m/fpv4-sp/hard\libg.a(lib_a-wcrtomb.o)
 .data          0x20000004        0x0 c:/ti/ccs1011/ccs/tools/compiler/gcc-arm-none-eabi-7-2017-q4-major-win32/bin/../lib/gcc/arm-none-eabi/7.2.1/thumb/v7e-m/fpv4-sp/hard\libgcc.a(_arm_addsubdf3.o)
 .data          0x20000004        0x0 c:/ti/ccs1011/ccs/tools/compiler/gcc-arm-none-eabi-7-2017-q4-major-win32/bin/../lib/gcc/arm-none-eabi/7.2.1/thumb/v7e-m/fpv4-sp/hard\libgcc.a(_arm_muldivdf3.o)
 .data          0x20000004        0x0 c:/ti/ccs1011/ccs/tools/compiler/gcc-arm-none-eabi-7-2017-q4-major-win32/bin/../lib/gcc/arm-none-eabi/7.2.1/thumb/v7e-m/fpv4-sp/hard\libgcc.a(_arm_cmpdf2.o)
 .data          0x20000004        0x0 c:/ti/ccs1011/ccs/tools/compiler/gcc-arm-none-eabi-7-2017-q4-major-win32/bin/../lib/gcc/arm-none-eabi/7.2.1/thumb/v7e-m/fpv4-sp/hard\libgcc.a(_arm_unorddf2.o)
 .data          0x20000004        0x0 c:/ti/ccs1011/ccs/tools/compiler/gcc-arm-none-eabi-7-2017-q4-major-win32/bin/../lib/gcc/arm-none-eabi/7.2.1/thumb/v7e-m/fpv4-sp/hard\libgcc.a(_arm_fixdfsi.o)
 .data          0x20000004        0x0 c:/ti/ccs1011/ccs/tools/compiler/gcc-arm-none-eabi-7-2017-q4-major-win32/bin/../lib/gcc/arm-none-eabi/7.2.1/thumb/v7e-m/fpv4-sp/hard\libgcc.a(_aeabi_uldivmod.o)
 .data          0x20000004        0x0 c:/ti/ccs1011/ccs/tools/compiler/gcc-arm-none-eabi-7-2017-q4-major-win32/bin/../lib/gcc/arm-none-eabi/7.2.1/thumb/v7e-m/fpv4-sp/hard\libgcc.a(_udivmoddi4.o)
 .data          0x20000004        0x0 c:/ti/ccs1011/ccs/tools/compiler/gcc-arm-none-eabi-7-2017-q4-major-win32/bin/../lib/gcc/arm-none-eabi/7.2.1/thumb/v7e-m/fpv4-sp/hard\libgcc.a(_dvmd_tls.o)
 .data          0x20000004        0x0 c:/ti/ccs1011/ccs/tools/compiler/gcc-arm-none-eabi-7-2017-q4-major-win32/bin/../lib/gcc/arm-none-eabi/7.2.1/../../../../arm-none-eabi/lib/thumb/v7e-m/fpv4-sp/hard\libnosys.a(close.o)
 .data          0x20000004        0x0 c:/ti/ccs1011/ccs/tools/compiler/gcc-arm-none-eabi-7-2017-q4-major-win32/bin/../lib/gcc/arm-none-eabi/7.2.1/../../../../arm-none-eabi/lib/thumb/v7e-m/fpv4-sp/hard\libnosys.a(fstat.o)
 .data          0x20000004        0x0 c:/ti/ccs1011/ccs/tools/compiler/gcc-arm-none-eabi-7-2017-q4-major-win32/bin/../lib/gcc/arm-none-eabi/7.2.1/../../../../arm-none-eabi/lib/thumb/v7e-m/fpv4-sp/hard\libnosys.a(isatty.o)
 .data          0x20000004        0x0 c:/ti/ccs1011/ccs/tools/compiler/gcc-arm-none-eabi-7-2017-q4-major-win32/bin/../lib/gcc/arm-none-eabi/7.2.1/../../../../arm-none-eabi/lib/thumb/v7e-m/fpv4-sp/hard\libnosys.a(lseek.o)
 .data          0x20000004        0x0 c:/ti/ccs1011/ccs/tools/compiler/gcc-arm-none-eabi-7-2017-q4-major-win32/bin/../lib/gcc/arm-none-eabi/7.2.1/../../../../arm-none-eabi/lib/thumb/v7e-m/fpv4-sp/hard\libnosys.a(read.o)
 .data          0x20000004        0x0 c:/ti/ccs1011/ccs/tools/compiler/gcc-arm-none-eabi-7-2017-q4-major-win32/bin/../lib/gcc/arm-none-eabi/7.2.1/../../../../arm-none-eabi/lib/thumb/v7e-m/fpv4-sp/hard\libnosys.a(sbrk.o)
 .data          0x20000004        0x0 c:/ti/ccs1011/ccs/tools/compiler/gcc-arm-none-eabi-7-2017-q4-major-win32/bin/../lib/gcc/arm-none-eabi/7.2.1/../../../../arm-none-eabi/lib/thumb/v7e-m/fpv4-sp/hard\libnosys.a(write.o)
 .data          0x20000004        0x0 c:/ti/ccs1011/ccs/tools/compiler/gcc-arm-none-eabi-7-2017-q4-major-win32/bin/../lib/gcc/arm-none-eabi/7.2.1/../../../../arm-none-eabi/lib/thumb/v7e-m/fpv4-sp/hard\libnosys.a(_exit.o)
 .data          0x20000004        0x0 c:/ti/ccs1011/ccs/tools/compiler/gcc-arm-none-eabi-7-2017-q4-major-win32/bin/../lib/gcc/arm-none-eabi/7.2.1/thumb/v7e-m/fpv4-sp/hard/crtend.o
 .data          0x20000004        0x0 c:/ti/ccs1011/ccs/tools/compiler/gcc-arm-none-eabi-7-2017-q4-major-win32/bin/../lib/gcc/arm-none-eabi/7.2.1/thumb/v7e-m/fpv4-sp/hard/crtn.o
 *(.data*)
 .data.uxCriticalNesting
                0x20000004        0x4 ./FreeRTOS/portable/GCC/ARM_CM4F/port.o
 .data.g_RxDescList
                0x20000008       0x10 ./lwip/port/tiva-tm4c129.o
                0x20000008                g_RxDescList
 .data.g_StellarisIFData
                0x20000018        0xc ./lwip/port/tiva-tm4c129.o
 .data.g_TxDescList
                0x20000024       0x10 ./lwip/port/tiva-tm4c129.o
                0x20000024                g_TxDescList
 .data.iss.8502
                0x20000034        0x4 ./lwip/src/core/tcp.o
 .data.tcp_port
                0x20000038        0x2 ./lwip/src/core/tcp.o
 .data.udp_port
                0x2000003a        0x2 ./lwip/src/core/udp.o
 .data._impure_ptr
                0x2000003c        0x4 c:/ti/ccs1011/ccs/tools/compiler/gcc-arm-none-eabi-7-2017-q4-major-win32/bin/../lib/gcc/arm-none-eabi/7.2.1/../../../../arm-none-eabi/lib/thumb/v7e-m/fpv4-sp/hard\libg.a(lib_a-impure.o)
                0x2000003c                _impure_ptr
 .data.impure_data
                0x20000040      0x428 c:/ti/ccs1011/ccs/tools/compiler/gcc-arm-none-eabi-7-2017-q4-major-win32/bin/../lib/gcc/arm-none-eabi/7.2.1/../../../../arm-none-eabi/lib/thumb/v7e-m/fpv4-sp/hard\libg.a(lib_a-impure.o)
 .data.__global_locale
                0x20000468      0x16c c:/ti/ccs1011/ccs/tools/compiler/gcc-arm-none-eabi-7-2017-q4-major-win32/bin/../lib/gcc/arm-none-eabi/7.2.1/../../../../arm-none-eabi/lib/thumb/v7e-m/fpv4-sp/hard\libg.a(lib_a-locale.o)
                0x20000468                __global_locale
 .data.__atexit_recursive_mutex
                0x200005d4        0x4 c:/ti/ccs1011/ccs/tools/compiler/gcc-arm-none-eabi-7-2017-q4-major-win32/bin/../lib/gcc/arm-none-eabi/7.2.1/../../../../arm-none-eabi/lib/thumb/v7e-m/fpv4-sp/hard\libg.a(lib_a-__call_atexit.o)
                0x200005d4                __atexit_recursive_mutex
 .data.__malloc_av_
                0x200005d8      0x408 c:/ti/ccs1011/ccs/tools/compiler/gcc-arm-none-eabi-7-2017-q4-major-win32/bin/../lib/gcc/arm-none-eabi/7.2.1/../../../../arm-none-eabi/lib/thumb/v7e-m/fpv4-sp/hard\libg.a(lib_a-mallocr.o)
                0x200005d8                __malloc_av_
 .data.__malloc_sbrk_base
                0x200009e0        0x4 c:/ti/ccs1011/ccs/tools/compiler/gcc-arm-none-eabi-7-2017-q4-major-win32/bin/../lib/gcc/arm-none-eabi/7.2.1/../../../../arm-none-eabi/lib/thumb/v7e-m/fpv4-sp/hard\libg.a(lib_a-mallocr.o)
                0x200009e0                __malloc_sbrk_base
 .data.__malloc_trim_threshold
                0x200009e4        0x4 c:/ti/ccs1011/ccs/tools/compiler/gcc-arm-none-eabi-7-2017-q4-major-win32/bin/../lib/gcc/arm-none-eabi/7.2.1/../../../../arm-none-eabi/lib/thumb/v7e-m/fpv4-sp/hard\libg.a(lib_a-mallocr.o)
                0x200009e4                __malloc_trim_threshold
                0x200009e8                . = ALIGN (0x4)
                0x200009e8                __data_end__ = .

.igot.plt       0x200009e8        0x0 load address 0x00027cb0
 .igot.plt      0x200009e8        0x0 c:/ti/ccs1011/ccs/tools/compiler/gcc-arm-none-eabi-7-2017-q4-major-win32/bin/../lib/gcc/arm-none-eabi/7.2.1/thumb/v7e-m/fpv4-sp/hard/crtbegin.o

vtable          0x20000c00      0x400 load address 0x00027cb0
 vtable         0x20000c00      0x400 C:/ti/TivaWare_C_Series-2.2.0.295/driverlib/gcc/libdriver.a(interrupt.o)

.ARM.exidx      0x000280b0        0x8
                0x000280b0                __exidx_start = .
 *(.ARM.exidx* .gnu.linkonce.armexidx.*)
 .ARM.exidx     0x000280b0        0x8 c:/ti/ccs1011/ccs/tools/compiler/gcc-arm-none-eabi-7-2017-q4-major-win32/bin/../lib/gcc/arm-none-eabi/7.2.1/../../../../arm-none-eabi/lib/thumb/v7e-m/fpv4-sp/hard/crt0.o
 .ARM.exidx     0x000280b8        0x0 c:/ti/ccs1011/ccs/tools/compiler/gcc-arm-none-eabi-7-2017-q4-major-win32/bin/../lib/gcc/arm-none-eabi/7.2.1/thumb/v7e-m/fpv4-sp/hard\libgcc.a(_udivmoddi4.o)
                                  0x8 (size before relaxing)
                0x000280b8                __exidx_end = .

.ARM.extab      0x000280b8        0x0
 *(.ARM.extab* .gnu.linkonce.armextab.*)
 .ARM.extab     0x000280b8        0x0 c:/ti/ccs1011/ccs/tools/compiler/gcc-arm-none-eabi-7-2017-q4-major-win32/bin/../lib/gcc/arm-none-eabi/7.2.1/../../../../arm-none-eabi/lib/thumb/v7e-m/fpv4-sp/hard/crt0.o
 .ARM.extab     0x000280b8        0x0 c:/ti/ccs1011/ccs/tools/compiler/gcc-arm-none-eabi-7-2017-q4-major-win32/bin/../lib/gcc/arm-none-eabi/7.2.1/thumb/v7e-m/fpv4-sp/hard\libgcc.a(_udivmoddi4.o)

.rel.dyn        0x000280b8        0x0
 .rel.iplt      0x000280b8        0x0 c:/ti/ccs1011/ccs/tools/compiler/gcc-arm-none-eabi-7-2017-q4-major-win32/bin/../lib/gcc/arm-none-eabi/7.2.1/thumb/v7e-m/fpv4-sp/hard/crtbegin.o

.bss            0x20001000    0x2de88
                0x20001000                __bss_start__ = .
 *(.shbss)
 *(.bss)
 .bss           0x20001000        0x0 c:/ti/ccs1011/ccs/tools/compiler/gcc-arm-none-eabi-7-2017-q4-major-win32/bin/../lib/gcc/arm-none-eabi/7.2.1/thumb/v7e-m/fpv4-sp/hard/crti.o
 .bss           0x20001000       0x1c c:/ti/ccs1011/ccs/tools/compiler/gcc-arm-none-eabi-7-2017-q4-major-win32/bin/../lib/gcc/arm-none-eabi/7.2.1/thumb/v7e-m/fpv4-sp/hard/crtbegin.o
 .bss           0x2000101c        0x0 c:/ti/ccs1011/ccs/tools/compiler/gcc-arm-none-eabi-7-2017-q4-major-win32/bin/../lib/gcc/arm-none-eabi/7.2.1/../../../../arm-none-eabi/lib/thumb/v7e-m/fpv4-sp/hard/crt0.o
 .bss           0x2000101c        0x0 ./main.o
 .bss           0x2000101c        0x0 ./tm4c1294ncpdt_startup_ccs_gcc.o
 .bss           0x2000101c        0x0 ./Drivers/pinout.o
 .bss           0x2000101c        0x0 ./FreeRTOS/CMSIS_RTOS/cmsis_os.o
 .bss           0x2000101c        0x0 ./FreeRTOS/croutine.o
 .bss           0x2000101c        0x0 ./FreeRTOS/event_groups.o
 .bss           0x2000101c        0x0 ./FreeRTOS/list.o
 .bss           0x2000101c        0x0 ./FreeRTOS/queue.o
 .bss           0x2000101c        0x0 ./FreeRTOS/stream_buffer.o
 .bss           0x2000101c        0x0 ./FreeRTOS/tasks.o
 .bss           0x2000101c        0x0 ./FreeRTOS/timers.o
 .bss           0x2000101c        0x0 ./FreeRTOS/portable/GCC/ARM_CM4F/port.o
 .bss           0x2000101c        0x0 ./FreeRTOS/portable/MemMang/heap_4.o
 .bss           0x2000101c        0x0 ./lwip/apps/httpserver_raw/fs.o
 .bss           0x2000101c        0x0 ./lwip/apps/httpserver_raw/httpd.o
 .bss           0x2000101c        0x0 ./lwip/lwiplib.o
 .bss           0x2000101c        0x0 ./lwip/port/tiva-tm4c129.o
 .bss           0x2000101c        0x0 ./lwip/src/api/api_lib.o
 .bss           0x2000101c        0x0 ./lwip/src/api/api_msg.o
 .bss           0x2000101c        0x0 ./lwip/src/api/err.o
 .bss           0x2000101c        0x0 ./lwip/src/api/if_api.o
 .bss           0x2000101c        0x0 ./lwip/src/api/netbuf.o
 .bss           0x2000101c        0x0 ./lwip/src/api/netdb.o
 .bss           0x2000101c        0x0 ./lwip/src/api/netifapi.o
 .bss           0x2000101c        0x0 ./lwip/src/api/sockets.o
 .bss           0x2000101c        0x0 ./lwip/src/api/tcpip.o
 .bss           0x2000101c        0x0 ./lwip/src/core/altcp.o
 .bss           0x2000101c        0x0 ./lwip/src/core/altcp_alloc.o
 .bss           0x2000101c        0x0 ./lwip/src/core/altcp_tcp.o
 .bss           0x2000101c        0x0 ./lwip/src/core/def.o
 .bss           0x2000101c        0x0 ./lwip/src/core/dns.o
 .bss           0x2000101c        0x0 ./lwip/src/core/inet_chksum.o
 .bss           0x2000101c        0x0 ./lwip/src/core/init.o
 .bss           0x2000101c        0x0 ./lwip/src/core/ip.o
 .bss           0x2000101c        0x0 ./lwip/src/core/mem.o
 .bss           0x2000101c        0x0 ./lwip/src/core/memp.o
 .bss           0x2000101c        0x0 ./lwip/src/core/netif.o
 .bss           0x2000101c        0x0 ./lwip/src/core/pbuf.o
 .bss           0x2000101c        0x0 ./lwip/src/core/raw.o
 .bss           0x2000101c        0x0 ./lwip/src/core/stats.o
 .bss           0x2000101c        0x0 ./lwip/src/core/sys.o
 .bss           0x2000101c        0x0 ./lwip/src/core/tcp.o
 .bss           0x2000101c        0x0 ./lwip/src/core/tcp_in.o
 .bss           0x2000101c        0x0 ./lwip/src/core/tcp_out.o
 .bss           0x2000101c        0x0 ./lwip/src/core/timeouts.o
 .bss           0x2000101c        0x0 ./lwip/src/core/udp.o
 .bss           0x2000101c        0x0 ./lwip/src/core/ipv4/autoip.o
 .bss           0x2000101c        0x0 ./lwip/src/core/ipv4/dhcp.o
 .bss           0x2000101c        0x0 ./lwip/src/core/ipv4/etharp.o
 .bss           0x2000101c        0x0 ./lwip/src/core/ipv4/icmp.o
 .bss           0x2000101c        0x0 ./lwip/src/core/ipv4/igmp.o
 .bss           0x2000101c        0x0 ./lwip/src/core/ipv4/ip4.o
 .bss           0x2000101c        0x0 ./lwip/src/core/ipv4/ip4_addr.o
 .bss           0x2000101c        0x0 ./lwip/src/core/ipv4/ip4_frag.o
 .bss           0x2000101c        0x0 ./lwip/src/netif/ethernet.o
 .bss           0x2000101c        0x0 ./lwip/src/netif/ppp/auth.o
 .bss           0x2000101c        0x0 ./lwip/src/netif/ppp/ccp.o
 .bss           0x2000101c        0x0 ./lwip/src/netif/ppp/chap-md5.o
 .bss           0x2000101c        0x0 ./lwip/src/netif/ppp/chap-new.o
 .bss           0x2000101c        0x0 ./lwip/src/netif/ppp/chap_ms.o
 .bss           0x2000101c        0x0 ./lwip/src/netif/ppp/demand.o
 .bss           0x2000101c        0x0 ./lwip/src/netif/ppp/eap.o
 .bss           0x2000101c        0x0 ./lwip/src/netif/ppp/ecp.o
 .bss           0x2000101c        0x0 ./lwip/src/netif/ppp/eui64.o
 .bss           0x2000101c        0x0 ./lwip/src/netif/ppp/fsm.o
 .bss           0x2000101c        0x0 ./lwip/src/netif/ppp/ipcp.o
 .bss           0x2000101c        0x0 ./lwip/src/netif/ppp/ipv6cp.o
 .bss           0x2000101c        0x0 ./lwip/src/netif/ppp/lcp.o
 .bss           0x2000101c        0x0 ./lwip/src/netif/ppp/magic.o
 .bss           0x2000101c        0x0 ./lwip/src/netif/ppp/mppe.o
 .bss           0x2000101c        0x0 ./lwip/src/netif/ppp/multilink.o
 .bss           0x2000101c        0x0 ./lwip/src/netif/ppp/ppp.o
 .bss           0x2000101c        0x0 ./lwip/src/netif/ppp/pppapi.o
 .bss           0x2000101c        0x0 ./lwip/src/netif/ppp/pppcrypt.o
 .bss           0x2000101c        0x0 ./lwip/src/netif/ppp/pppoe.o
 .bss           0x2000101c        0x0 ./lwip/src/netif/ppp/pppol2tp.o
 .bss           0x2000101c        0x0 ./lwip/src/netif/ppp/pppos.o
 .bss           0x2000101c        0x0 ./lwip/src/netif/ppp/upap.o
 .bss           0x2000101c        0x0 ./lwip/src/netif/ppp/utils.o
 .bss           0x2000101c        0x0 ./lwip/src/netif/ppp/vj.o
 .bss           0x2000101c        0x0 ./lwip/src/netif/ppp/polarssl/arc4.o
 .bss           0x2000101c        0x0 ./lwip/src/netif/ppp/polarssl/des.o
 .bss           0x2000101c        0x0 ./lwip/src/netif/ppp/polarssl/md4.o
 .bss           0x2000101c        0x0 ./lwip/src/netif/ppp/polarssl/md5.o
 .bss           0x2000101c        0x0 ./lwip/src/netif/ppp/polarssl/sha1.o
 .bss           0x2000101c        0x0 ./lwip/system/OS/sys_arch.o
 .bss           0x2000101c        0x0 C:/ti/TivaWare_C_Series-2.2.0.295/driverlib/gcc/libdriver.a(emac.o)
 .bss           0x2000101c        0x0 C:/ti/TivaWare_C_Series-2.2.0.295/driverlib/gcc/libdriver.a(gpio.o)
 .bss           0x2000101c        0x0 C:/ti/TivaWare_C_Series-2.2.0.295/driverlib/gcc/libdriver.a(interrupt.o)
 .bss           0x2000101c        0x0 C:/ti/TivaWare_C_Series-2.2.0.295/driverlib/gcc/libdriver.a(sw_crc.o)
 .bss           0x2000101c        0x0 C:/ti/TivaWare_C_Series-2.2.0.295/driverlib/gcc/libdriver.a(sysctl.o)
 .bss           0x2000101c        0x0 C:/ti/TivaWare_C_Series-2.2.0.295/driverlib/gcc/libdriver.a(cpu.o)
 .bss           0x2000101c        0x0 c:/ti/ccs1011/ccs/tools/compiler/gcc-arm-none-eabi-7-2017-q4-major-win32/bin/../lib/gcc/arm-none-eabi/7.2.1/../../../../arm-none-eabi/lib/thumb/v7e-m/fpv4-sp/hard\libg.a(lib_a-atoi.o)
 .bss           0x2000101c        0x0 c:/ti/ccs1011/ccs/tools/compiler/gcc-arm-none-eabi-7-2017-q4-major-win32/bin/../lib/gcc/arm-none-eabi/7.2.1/../../../../arm-none-eabi/lib/thumb/v7e-m/fpv4-sp/hard\libg.a(lib_a-exit.o)
 .bss           0x2000101c        0x0 c:/ti/ccs1011/ccs/tools/compiler/gcc-arm-none-eabi-7-2017-q4-major-win32/bin/../lib/gcc/arm-none-eabi/7.2.1/../../../../arm-none-eabi/lib/thumb/v7e-m/fpv4-sp/hard\libg.a(lib_a-impure.o)
 .bss           0x2000101c        0x0 c:/ti/ccs1011/ccs/tools/compiler/gcc-arm-none-eabi-7-2017-q4-major-win32/bin/../lib/gcc/arm-none-eabi/7.2.1/../../../../arm-none-eabi/lib/thumb/v7e-m/fpv4-sp/hard\libg.a(lib_a-init.o)
 .bss           0x2000101c        0x0 c:/ti/ccs1011/ccs/tools/compiler/gcc-arm-none-eabi-7-2017-q4-major-win32/bin/../lib/gcc/arm-none-eabi/7.2.1/../../../../arm-none-eabi/lib/thumb/v7e-m/fpv4-sp/hard\libg.a(lib_a-locale.o)
 .bss           0x2000101c        0x0 c:/ti/ccs1011/ccs/tools/compiler/gcc-arm-none-eabi-7-2017-q4-major-win32/bin/../lib/gcc/arm-none-eabi/7.2.1/../../../../arm-none-eabi/lib/thumb/v7e-m/fpv4-sp/hard\libg.a(lib_a-mbtowc_r.o)
 .bss           0x2000101c        0x0 c:/ti/ccs1011/ccs/tools/compiler/gcc-arm-none-eabi-7-2017-q4-major-win32/bin/../lib/gcc/arm-none-eabi/7.2.1/../../../../arm-none-eabi/lib/thumb/v7e-m/fpv4-sp/hard\libg.a(lib_a-memcmp.o)
 .bss           0x2000101c        0x0 c:/ti/ccs1011/ccs/tools/compiler/gcc-arm-none-eabi-7-2017-q4-major-win32/bin/../lib/gcc/arm-none-eabi/7.2.1/../../../../arm-none-eabi/lib/thumb/v7e-m/fpv4-sp/hard\libg.a(lib_a-memcpy.o)
 .bss           0x2000101c        0x0 c:/ti/ccs1011/ccs/tools/compiler/gcc-arm-none-eabi-7-2017-q4-major-win32/bin/../lib/gcc/arm-none-eabi/7.2.1/../../../../arm-none-eabi/lib/thumb/v7e-m/fpv4-sp/hard\libg.a(lib_a-memmove.o)
 .bss           0x2000101c        0x0 c:/ti/ccs1011/ccs/tools/compiler/gcc-arm-none-eabi-7-2017-q4-major-win32/bin/../lib/gcc/arm-none-eabi/7.2.1/../../../../arm-none-eabi/lib/thumb/v7e-m/fpv4-sp/hard\libg.a(lib_a-memset.o)
 .bss           0x2000101c        0x0 c:/ti/ccs1011/ccs/tools/compiler/gcc-arm-none-eabi-7-2017-q4-major-win32/bin/../lib/gcc/arm-none-eabi/7.2.1/../../../../arm-none-eabi/lib/thumb/v7e-m/fpv4-sp/hard\libg.a(lib_a-printf.o)
 .bss           0x2000101c        0x0 c:/ti/ccs1011/ccs/tools/compiler/gcc-arm-none-eabi-7-2017-q4-major-win32/bin/../lib/gcc/arm-none-eabi/7.2.1/../../../../arm-none-eabi/lib/thumb/v7e-m/fpv4-sp/hard\libg.a(lib_a-rand.o)
 .bss           0x2000101c        0x0 c:/ti/ccs1011/ccs/tools/compiler/gcc-arm-none-eabi-7-2017-q4-major-win32/bin/../lib/gcc/arm-none-eabi/7.2.1/../../../../arm-none-eabi/lib/thumb/v7e-m/fpv4-sp/hard\libg.a(lib_a-reent.o)
 .bss           0x2000101c        0x0 c:/ti/ccs1011/ccs/tools/compiler/gcc-arm-none-eabi-7-2017-q4-major-win32/bin/../lib/gcc/arm-none-eabi/7.2.1/../../../../arm-none-eabi/lib/thumb/v7e-m/fpv4-sp/hard\libg.a(lib_a-sprintf.o)
 .bss           0x2000101c        0x0 c:/ti/ccs1011/ccs/tools/compiler/gcc-arm-none-eabi-7-2017-q4-major-win32/bin/../lib/gcc/arm-none-eabi/7.2.1/../../../../arm-none-eabi/lib/thumb/v7e-m/fpv4-sp/hard\libg.a(lib_a-strchr.o)
 .bss           0x2000101c        0x0 c:/ti/ccs1011/ccs/tools/compiler/gcc-arm-none-eabi-7-2017-q4-major-win32/bin/../lib/gcc/arm-none-eabi/7.2.1/../../../../arm-none-eabi/lib/thumb/v7e-m/fpv4-sp/hard\libg.a(lib_a-strcmp.o)
 .bss           0x2000101c        0x0 c:/ti/ccs1011/ccs/tools/compiler/gcc-arm-none-eabi-7-2017-q4-major-win32/bin/../lib/gcc/arm-none-eabi/7.2.1/../../../../arm-none-eabi/lib/thumb/v7e-m/fpv4-sp/hard\libg.a(lib_a-strlen.o)
 .bss           0x2000101c        0x0 c:/ti/ccs1011/ccs/tools/compiler/gcc-arm-none-eabi-7-2017-q4-major-win32/bin/../lib/gcc/arm-none-eabi/7.2.1/../../../../arm-none-eabi/lib/thumb/v7e-m/fpv4-sp/hard\libg.a(lib_a-strncmp.o)
 .bss           0x2000101c        0x0 c:/ti/ccs1011/ccs/tools/compiler/gcc-arm-none-eabi-7-2017-q4-major-win32/bin/../lib/gcc/arm-none-eabi/7.2.1/../../../../arm-none-eabi/lib/thumb/v7e-m/fpv4-sp/hard\libg.a(lib_a-strncpy.o)
 .bss           0x2000101c        0x0 c:/ti/ccs1011/ccs/tools/compiler/gcc-arm-none-eabi-7-2017-q4-major-win32/bin/../lib/gcc/arm-none-eabi/7.2.1/../../../../arm-none-eabi/lib/thumb/v7e-m/fpv4-sp/hard\libg.a(lib_a-strstr.o)
 .bss           0x2000101c        0x0 c:/ti/ccs1011/ccs/tools/compiler/gcc-arm-none-eabi-7-2017-q4-major-win32/bin/../lib/gcc/arm-none-eabi/7.2.1/../../../../arm-none-eabi/lib/thumb/v7e-m/fpv4-sp/hard\libg.a(lib_a-strtol.o)
 .bss           0x2000101c        0x0 c:/ti/ccs1011/ccs/tools/compiler/gcc-arm-none-eabi-7-2017-q4-major-win32/bin/../lib/gcc/arm-none-eabi/7.2.1/../../../../arm-none-eabi/lib/thumb/v7e-m/fpv4-sp/hard\libg.a(lib_a-svfprintf.o)
 .bss           0x2000101c        0x0 c:/ti/ccs1011/ccs/tools/compiler/gcc-arm-none-eabi-7-2017-q4-major-win32/bin/../lib/gcc/arm-none-eabi/7.2.1/../../../../arm-none-eabi/lib/thumb/v7e-m/fpv4-sp/hard\libg.a(lib_a-vfprintf.o)
 .bss           0x2000101c        0x0 c:/ti/ccs1011/ccs/tools/compiler/gcc-arm-none-eabi-7-2017-q4-major-win32/bin/../lib/gcc/arm-none-eabi/7.2.1/../../../../arm-none-eabi/lib/thumb/v7e-m/fpv4-sp/hard\libg.a(lib_a-wctomb_r.o)
 .bss           0x2000101c        0x0 c:/ti/ccs1011/ccs/tools/compiler/gcc-arm-none-eabi-7-2017-q4-major-win32/bin/../lib/gcc/arm-none-eabi/7.2.1/../../../../arm-none-eabi/lib/thumb/v7e-m/fpv4-sp/hard\libg.a(lib_a-wsetup.o)
 .bss           0x2000101c        0x0 c:/ti/ccs1011/ccs/tools/compiler/gcc-arm-none-eabi-7-2017-q4-major-win32/bin/../lib/gcc/arm-none-eabi/7.2.1/../../../../arm-none-eabi/lib/thumb/v7e-m/fpv4-sp/hard\libg.a(lib_a-__call_atexit.o)
 .bss           0x2000101c        0x0 c:/ti/ccs1011/ccs/tools/compiler/gcc-arm-none-eabi-7-2017-q4-major-win32/bin/../lib/gcc/arm-none-eabi/7.2.1/../../../../arm-none-eabi/lib/thumb/v7e-m/fpv4-sp/hard\libg.a(lib_a-atexit.o)
 .bss           0x2000101c        0x0 c:/ti/ccs1011/ccs/tools/compiler/gcc-arm-none-eabi-7-2017-q4-major-win32/bin/../lib/gcc/arm-none-eabi/7.2.1/../../../../arm-none-eabi/lib/thumb/v7e-m/fpv4-sp/hard\libg.a(lib_a-ctype_.o)
 .bss           0x2000101c        0x0 c:/ti/ccs1011/ccs/tools/compiler/gcc-arm-none-eabi-7-2017-q4-major-win32/bin/../lib/gcc/arm-none-eabi/7.2.1/../../../../arm-none-eabi/lib/thumb/v7e-m/fpv4-sp/hard\libg.a(lib_a-dtoa.o)
 .bss           0x2000101c        0x0 c:/ti/ccs1011/ccs/tools/compiler/gcc-arm-none-eabi-7-2017-q4-major-win32/bin/../lib/gcc/arm-none-eabi/7.2.1/../../../../arm-none-eabi/lib/thumb/v7e-m/fpv4-sp/hard\libg.a(lib_a-fflush.o)
 .bss           0x2000101c        0x0 c:/ti/ccs1011/ccs/tools/compiler/gcc-arm-none-eabi-7-2017-q4-major-win32/bin/../lib/gcc/arm-none-eabi/7.2.1/../../../../arm-none-eabi/lib/thumb/v7e-m/fpv4-sp/hard\libg.a(lib_a-findfp.o)
 .bss           0x2000101c        0x0 c:/ti/ccs1011/ccs/tools/compiler/gcc-arm-none-eabi-7-2017-q4-major-win32/bin/../lib/gcc/arm-none-eabi/7.2.1/../../../../arm-none-eabi/lib/thumb/v7e-m/fpv4-sp/hard\libg.a(lib_a-fini.o)
 .bss           0x2000101c        0x0 c:/ti/ccs1011/ccs/tools/compiler/gcc-arm-none-eabi-7-2017-q4-major-win32/bin/../lib/gcc/arm-none-eabi/7.2.1/../../../../arm-none-eabi/lib/thumb/v7e-m/fpv4-sp/hard\libg.a(lib_a-freer.o)
 .bss           0x2000101c        0x0 c:/ti/ccs1011/ccs/tools/compiler/gcc-arm-none-eabi-7-2017-q4-major-win32/bin/../lib/gcc/arm-none-eabi/7.2.1/../../../../arm-none-eabi/lib/thumb/v7e-m/fpv4-sp/hard\libg.a(lib_a-fwalk.o)
 .bss           0x2000101c        0x0 c:/ti/ccs1011/ccs/tools/compiler/gcc-arm-none-eabi-7-2017-q4-major-win32/bin/../lib/gcc/arm-none-eabi/7.2.1/../../../../arm-none-eabi/lib/thumb/v7e-m/fpv4-sp/hard\libg.a(lib_a-localeconv.o)
 .bss           0x2000101c        0x0 c:/ti/ccs1011/ccs/tools/compiler/gcc-arm-none-eabi-7-2017-q4-major-win32/bin/../lib/gcc/arm-none-eabi/7.2.1/../../../../arm-none-eabi/lib/thumb/v7e-m/fpv4-sp/hard\libg.a(lib_a-lock.o)
 .bss           0x2000101c        0x0 c:/ti/ccs1011/ccs/tools/compiler/gcc-arm-none-eabi-7-2017-q4-major-win32/bin/../lib/gcc/arm-none-eabi/7.2.1/../../../../arm-none-eabi/lib/thumb/v7e-m/fpv4-sp/hard\libg.a(lib_a-makebuf.o)
 .bss           0x2000101c        0x0 c:/ti/ccs1011/ccs/tools/compiler/gcc-arm-none-eabi-7-2017-q4-major-win32/bin/../lib/gcc/arm-none-eabi/7.2.1/../../../../arm-none-eabi/lib/thumb/v7e-m/fpv4-sp/hard\libg.a(lib_a-mallocr.o)
 .bss           0x2000101c        0x0 c:/ti/ccs1011/ccs/tools/compiler/gcc-arm-none-eabi-7-2017-q4-major-win32/bin/../lib/gcc/arm-none-eabi/7.2.1/../../../../arm-none-eabi/lib/thumb/v7e-m/fpv4-sp/hard\libg.a(lib_a-memchr.o)
 .bss           0x2000101c        0x0 c:/ti/ccs1011/ccs/tools/compiler/gcc-arm-none-eabi-7-2017-q4-major-win32/bin/../lib/gcc/arm-none-eabi/7.2.1/../../../../arm-none-eabi/lib/thumb/v7e-m/fpv4-sp/hard\libg.a(lib_a-mlock.o)
 .bss           0x2000101c        0x0 c:/ti/ccs1011/ccs/tools/compiler/gcc-arm-none-eabi-7-2017-q4-major-win32/bin/../lib/gcc/arm-none-eabi/7.2.1/../../../../arm-none-eabi/lib/thumb/v7e-m/fpv4-sp/hard\libg.a(lib_a-mprec.o)
 .bss           0x2000101c        0x0 c:/ti/ccs1011/ccs/tools/compiler/gcc-arm-none-eabi-7-2017-q4-major-win32/bin/../lib/gcc/arm-none-eabi/7.2.1/../../../../arm-none-eabi/lib/thumb/v7e-m/fpv4-sp/hard\libg.a(lib_a-sbrkr.o)
 .bss           0x2000101c        0x0 c:/ti/ccs1011/ccs/tools/compiler/gcc-arm-none-eabi-7-2017-q4-major-win32/bin/../lib/gcc/arm-none-eabi/7.2.1/../../../../arm-none-eabi/lib/thumb/v7e-m/fpv4-sp/hard\libg.a(lib_a-stdio.o)
 .bss           0x2000101c        0x0 c:/ti/ccs1011/ccs/tools/compiler/gcc-arm-none-eabi-7-2017-q4-major-win32/bin/../lib/gcc/arm-none-eabi/7.2.1/../../../../arm-none-eabi/lib/thumb/v7e-m/fpv4-sp/hard\libg.a(lib_a-svfiprintf.o)
 .bss           0x2000101c        0x0 c:/ti/ccs1011/ccs/tools/compiler/gcc-arm-none-eabi-7-2017-q4-major-win32/bin/../lib/gcc/arm-none-eabi/7.2.1/../../../../arm-none-eabi/lib/thumb/v7e-m/fpv4-sp/hard\libg.a(lib_a-vfiprintf.o)
 .bss           0x2000101c        0x0 c:/ti/ccs1011/ccs/tools/compiler/gcc-arm-none-eabi-7-2017-q4-major-win32/bin/../lib/gcc/arm-none-eabi/7.2.1/../../../../arm-none-eabi/lib/thumb/v7e-m/fpv4-sp/hard\libg.a(lib_a-writer.o)
 .bss           0x2000101c        0x0 c:/ti/ccs1011/ccs/tools/compiler/gcc-arm-none-eabi-7-2017-q4-major-win32/bin/../lib/gcc/arm-none-eabi/7.2.1/../../../../arm-none-eabi/lib/thumb/v7e-m/fpv4-sp/hard\libg.a(lib_a-__atexit.o)
 .bss           0x2000101c        0x0 c:/ti/ccs1011/ccs/tools/compiler/gcc-arm-none-eabi-7-2017-q4-major-win32/bin/../lib/gcc/arm-none-eabi/7.2.1/../../../../arm-none-eabi/lib/thumb/v7e-m/fpv4-sp/hard\libg.a(lib_a-callocr.o)
 .bss           0x2000101c        0x0 c:/ti/ccs1011/ccs/tools/compiler/gcc-arm-none-eabi-7-2017-q4-major-win32/bin/../lib/gcc/arm-none-eabi/7.2.1/../../../../arm-none-eabi/lib/thumb/v7e-m/fpv4-sp/hard\libg.a(lib_a-closer.o)
 .bss           0x2000101c        0x0 c:/ti/ccs1011/ccs/tools/compiler/gcc-arm-none-eabi-7-2017-q4-major-win32/bin/../lib/gcc/arm-none-eabi/7.2.1/../../../../arm-none-eabi/lib/thumb/v7e-m/fpv4-sp/hard\libg.a(lib_a-fclose.o)
 .bss           0x2000101c        0x0 c:/ti/ccs1011/ccs/tools/compiler/gcc-arm-none-eabi-7-2017-q4-major-win32/bin/../lib/gcc/arm-none-eabi/7.2.1/../../../../arm-none-eabi/lib/thumb/v7e-m/fpv4-sp/hard\libg.a(lib_a-fputwc.o)
 .bss           0x2000101c        0x0 c:/ti/ccs1011/ccs/tools/compiler/gcc-arm-none-eabi-7-2017-q4-major-win32/bin/../lib/gcc/arm-none-eabi/7.2.1/../../../../arm-none-eabi/lib/thumb/v7e-m/fpv4-sp/hard\libg.a(lib_a-fstatr.o)
 .bss           0x2000101c        0x0 c:/ti/ccs1011/ccs/tools/compiler/gcc-arm-none-eabi-7-2017-q4-major-win32/bin/../lib/gcc/arm-none-eabi/7.2.1/../../../../arm-none-eabi/lib/thumb/v7e-m/fpv4-sp/hard\libg.a(lib_a-fvwrite.o)
 .bss           0x2000101c        0x0 c:/ti/ccs1011/ccs/tools/compiler/gcc-arm-none-eabi-7-2017-q4-major-win32/bin/../lib/gcc/arm-none-eabi/7.2.1/../../../../arm-none-eabi/lib/thumb/v7e-m/fpv4-sp/hard\libg.a(lib_a-isattyr.o)
 .bss           0x2000101c        0x0 c:/ti/ccs1011/ccs/tools/compiler/gcc-arm-none-eabi-7-2017-q4-major-win32/bin/../lib/gcc/arm-none-eabi/7.2.1/../../../../arm-none-eabi/lib/thumb/v7e-m/fpv4-sp/hard\libg.a(lib_a-lseekr.o)
 .bss           0x2000101c        0x0 c:/ti/ccs1011/ccs/tools/compiler/gcc-arm-none-eabi-7-2017-q4-major-win32/bin/../lib/gcc/arm-none-eabi/7.2.1/../../../../arm-none-eabi/lib/thumb/v7e-m/fpv4-sp/hard\libg.a(lib_a-readr.o)
 .bss           0x2000101c        0x0 c:/ti/ccs1011/ccs/tools/compiler/gcc-arm-none-eabi-7-2017-q4-major-win32/bin/../lib/gcc/arm-none-eabi/7.2.1/../../../../arm-none-eabi/lib/thumb/v7e-m/fpv4-sp/hard\libg.a(lib_a-reallocr.o)
 .bss           0x2000101c        0x0 c:/ti/ccs1011/ccs/tools/compiler/gcc-arm-none-eabi-7-2017-q4-major-win32/bin/../lib/gcc/arm-none-eabi/7.2.1/../../../../arm-none-eabi/lib/thumb/v7e-m/fpv4-sp/hard\libg.a(lib_a-wbuf.o)
 .bss           0x2000101c        0x0 c:/ti/ccs1011/ccs/tools/compiler/gcc-arm-none-eabi-7-2017-q4-major-win32/bin/../lib/gcc/arm-none-eabi/7.2.1/../../../../arm-none-eabi/lib/thumb/v7e-m/fpv4-sp/hard\libg.a(lib_a-wcrtomb.o)
 .bss           0x2000101c        0x0 c:/ti/ccs1011/ccs/tools/compiler/gcc-arm-none-eabi-7-2017-q4-major-win32/bin/../lib/gcc/arm-none-eabi/7.2.1/thumb/v7e-m/fpv4-sp/hard\libgcc.a(_arm_addsubdf3.o)
 .bss           0x2000101c        0x0 c:/ti/ccs1011/ccs/tools/compiler/gcc-arm-none-eabi-7-2017-q4-major-win32/bin/../lib/gcc/arm-none-eabi/7.2.1/thumb/v7e-m/fpv4-sp/hard\libgcc.a(_arm_muldivdf3.o)
 .bss           0x2000101c        0x0 c:/ti/ccs1011/ccs/tools/compiler/gcc-arm-none-eabi-7-2017-q4-major-win32/bin/../lib/gcc/arm-none-eabi/7.2.1/thumb/v7e-m/fpv4-sp/hard\libgcc.a(_arm_cmpdf2.o)
 .bss           0x2000101c        0x0 c:/ti/ccs1011/ccs/tools/compiler/gcc-arm-none-eabi-7-2017-q4-major-win32/bin/../lib/gcc/arm-none-eabi/7.2.1/thumb/v7e-m/fpv4-sp/hard\libgcc.a(_arm_unorddf2.o)
 .bss           0x2000101c        0x0 c:/ti/ccs1011/ccs/tools/compiler/gcc-arm-none-eabi-7-2017-q4-major-win32/bin/../lib/gcc/arm-none-eabi/7.2.1/thumb/v7e-m/fpv4-sp/hard\libgcc.a(_arm_fixdfsi.o)
 .bss           0x2000101c        0x0 c:/ti/ccs1011/ccs/tools/compiler/gcc-arm-none-eabi-7-2017-q4-major-win32/bin/../lib/gcc/arm-none-eabi/7.2.1/thumb/v7e-m/fpv4-sp/hard\libgcc.a(_aeabi_uldivmod.o)
 .bss           0x2000101c        0x0 c:/ti/ccs1011/ccs/tools/compiler/gcc-arm-none-eabi-7-2017-q4-major-win32/bin/../lib/gcc/arm-none-eabi/7.2.1/thumb/v7e-m/fpv4-sp/hard\libgcc.a(_udivmoddi4.o)
 .bss           0x2000101c        0x0 c:/ti/ccs1011/ccs/tools/compiler/gcc-arm-none-eabi-7-2017-q4-major-win32/bin/../lib/gcc/arm-none-eabi/7.2.1/thumb/v7e-m/fpv4-sp/hard\libgcc.a(_dvmd_tls.o)
 .bss           0x2000101c        0x0 c:/ti/ccs1011/ccs/tools/compiler/gcc-arm-none-eabi-7-2017-q4-major-win32/bin/../lib/gcc/arm-none-eabi/7.2.1/../../../../arm-none-eabi/lib/thumb/v7e-m/fpv4-sp/hard\libnosys.a(close.o)
 .bss           0x2000101c        0x0 c:/ti/ccs1011/ccs/tools/compiler/gcc-arm-none-eabi-7-2017-q4-major-win32/bin/../lib/gcc/arm-none-eabi/7.2.1/../../../../arm-none-eabi/lib/thumb/v7e-m/fpv4-sp/hard\libnosys.a(fstat.o)
 .bss           0x2000101c        0x0 c:/ti/ccs1011/ccs/tools/compiler/gcc-arm-none-eabi-7-2017-q4-major-win32/bin/../lib/gcc/arm-none-eabi/7.2.1/../../../../arm-none-eabi/lib/thumb/v7e-m/fpv4-sp/hard\libnosys.a(isatty.o)
 .bss           0x2000101c        0x0 c:/ti/ccs1011/ccs/tools/compiler/gcc-arm-none-eabi-7-2017-q4-major-win32/bin/../lib/gcc/arm-none-eabi/7.2.1/../../../../arm-none-eabi/lib/thumb/v7e-m/fpv4-sp/hard\libnosys.a(lseek.o)
 .bss           0x2000101c        0x0 c:/ti/ccs1011/ccs/tools/compiler/gcc-arm-none-eabi-7-2017-q4-major-win32/bin/../lib/gcc/arm-none-eabi/7.2.1/../../../../arm-none-eabi/lib/thumb/v7e-m/fpv4-sp/hard\libnosys.a(read.o)
 .bss           0x2000101c        0x0 c:/ti/ccs1011/ccs/tools/compiler/gcc-arm-none-eabi-7-2017-q4-major-win32/bin/../lib/gcc/arm-none-eabi/7.2.1/../../../../arm-none-eabi/lib/thumb/v7e-m/fpv4-sp/hard\libnosys.a(sbrk.o)
 .bss           0x2000101c        0x0 c:/ti/ccs1011/ccs/tools/compiler/gcc-arm-none-eabi-7-2017-q4-major-win32/bin/../lib/gcc/arm-none-eabi/7.2.1/../../../../arm-none-eabi/lib/thumb/v7e-m/fpv4-sp/hard\libnosys.a(write.o)
 .bss           0x2000101c        0x0 c:/ti/ccs1011/ccs/tools/compiler/gcc-arm-none-eabi-7-2017-q4-major-win32/bin/../lib/gcc/arm-none-eabi/7.2.1/../../../../arm-none-eabi/lib/thumb/v7e-m/fpv4-sp/hard\libnosys.a(_exit.o)
 .bss           0x2000101c        0x0 c:/ti/ccs1011/ccs/tools/compiler/gcc-arm-none-eabi-7-2017-q4-major-win32/bin/../lib/gcc/arm-none-eabi/7.2.1/thumb/v7e-m/fpv4-sp/hard/crtend.o
 .bss           0x2000101c        0x0 c:/ti/ccs1011/ccs/tools/compiler/gcc-arm-none-eabi-7-2017-q4-major-win32/bin/../lib/gcc/arm-none-eabi/7.2.1/thumb/v7e-m/fpv4-sp/hard/crtn.o
 *(.bss.*)
 .bss.lwip_link_up
                0x2000101c        0x4 ./main.o
                0x2000101c                lwip_link_up
 .bss.pcBuf.9793
                0x20001020       0x10 ./main.o
 .bss.pui32Stack
                0x20001030      0x200 ./tm4c1294ncpdt_startup_ccs_gcc.o
 .bss.pxCurrentTCB
                0x20001230        0x4 ./FreeRTOS/tasks.o
                0x20001230                pxCurrentTCB
 .bss.pxDelayedTaskList
                0x20001234        0x4 ./FreeRTOS/tasks.o
 .bss.pxOverflowDelayedTaskList
                0x20001238        0x4 ./FreeRTOS/tasks.o
 .bss.pxReadyTasksLists
                0x2000123c      0x12c ./FreeRTOS/tasks.o
 .bss.uxCurrentNumberOfTasks
                0x20001368        0x4 ./FreeRTOS/tasks.o
 .bss.uxDeletedTasksWaitingCleanUp
                0x2000136c        0x4 ./FreeRTOS/tasks.o
 .bss.uxSchedulerSuspended
                0x20001370        0x4 ./FreeRTOS/tasks.o
 .bss.uxTaskNumber
                0x20001374        0x4 ./FreeRTOS/tasks.o
 .bss.uxTopReadyPriority
                0x20001378        0x4 ./FreeRTOS/tasks.o
 .bss.xDelayedTaskList1
                0x2000137c       0x14 ./FreeRTOS/tasks.o
 .bss.xDelayedTaskList2
                0x20001390       0x14 ./FreeRTOS/tasks.o
 .bss.xIdleTaskHandle
                0x200013a4        0x4 ./FreeRTOS/tasks.o
 .bss.xNextTaskUnblockTime
                0x200013a8        0x4 ./FreeRTOS/tasks.o
 .bss.xNumOfOverflows
                0x200013ac        0x4 ./FreeRTOS/tasks.o
 .bss.xPendedTicks
                0x200013b0        0x4 ./FreeRTOS/tasks.o
 .bss.xPendingReadyList
                0x200013b4       0x14 ./FreeRTOS/tasks.o
 .bss.xSchedulerRunning
                0x200013c8        0x4 ./FreeRTOS/tasks.o
 .bss.xSuspendedTaskList
                0x200013cc       0x14 ./FreeRTOS/tasks.o
 .bss.xTasksWaitingTermination
                0x200013e0       0x14 ./FreeRTOS/tasks.o
 .bss.xTickCount
                0x200013f4        0x4 ./FreeRTOS/tasks.o
 .bss.xYieldPending
                0x200013f8        0x4 ./FreeRTOS/tasks.o
 .bss.pxCurrentTimerList
                0x200013fc        0x4 ./FreeRTOS/timers.o
 .bss.pxOverflowTimerList
                0x20001400        0x4 ./FreeRTOS/timers.o
 .bss.xActiveTimerList1
                0x20001404       0x14 ./FreeRTOS/timers.o
 .bss.xActiveTimerList2
                0x20001418       0x14 ./FreeRTOS/timers.o
 .bss.xLastTime.6738
                0x2000142c        0x4 ./FreeRTOS/timers.o
 .bss.xTimerQueue
                0x20001430        0x4 ./FreeRTOS/timers.o
 .bss.xTimerTaskHandle
                0x20001434        0x4 ./FreeRTOS/timers.o
 .bss.ucMaxSysCallPriority
                0x20001438        0x1 ./FreeRTOS/portable/GCC/ARM_CM4F/port.o
 *fill*         0x20001439        0x3 
 .bss.ulMaxPRIGROUPValue
                0x2000143c        0x4 ./FreeRTOS/portable/GCC/ARM_CM4F/port.o
 .bss.pxEnd     0x20001440        0x4 ./FreeRTOS/portable/MemMang/heap_4.o
 .bss.ucHeap    0x20001444    0x21000 ./FreeRTOS/portable/MemMang/heap_4.o
 .bss.xBlockAllocatedBit
                0x20022444        0x4 ./FreeRTOS/portable/MemMang/heap_4.o
 .bss.xFreeBytesRemaining
                0x20022448        0x4 ./FreeRTOS/portable/MemMang/heap_4.o
 .bss.xMinimumEverFreeBytesRemaining
                0x2002244c        0x4 ./FreeRTOS/portable/MemMang/heap_4.o
 .bss.xNumberOfSuccessfulAllocations
                0x20022450        0x4 ./FreeRTOS/portable/MemMang/heap_4.o
 .bss.xNumberOfSuccessfulFrees
                0x20022454        0x4 ./FreeRTOS/portable/MemMang/heap_4.o
 .bss.xStart    0x20022458        0x8 ./FreeRTOS/portable/MemMang/heap_4.o
 .bss.http_uri_buf
                0x20022460       0x40 ./lwip/apps/httpserver_raw/httpd.o
 .bss.httpd_cgis
                0x200224a0        0x4 ./lwip/apps/httpserver_raw/httpd.o
 .bss.httpd_num_cgis
                0x200224a4        0x4 ./lwip/apps/httpserver_raw/httpd.o
 .bss.httpd_num_tags
                0x200224a8        0x4 ./lwip/apps/httpserver_raw/httpd.o
 .bss.httpd_req_buf
                0x200224ac      0x400 ./lwip/apps/httpserver_raw/httpd.o
 .bss.httpd_ssi_handler
                0x200228ac        0x4 ./lwip/apps/httpserver_raw/httpd.o
 .bss.httpd_tags
                0x200228b0        0x4 ./lwip/apps/httpserver_raw/httpd.o
 .bss.g_bLinkActive
                0x200228b4        0x1 ./lwip/lwiplib.o
 *fill*         0x200228b5        0x3 
 .bss.g_pInterrupt
                0x200228b8        0x4 ./lwip/lwiplib.o
 .bss.g_sNetIF  0x200228bc        0x4 ./lwip/lwiplib.o
 .bss.g_ui32GWAddr
                0x200228c0        0x4 ./lwip/lwiplib.o
 .bss.g_ui32IPAddr
                0x200228c4        0x4 ./lwip/lwiplib.o
 .bss.g_ui32IPMode
                0x200228c8        0x4 ./lwip/lwiplib.o
 .bss.g_ui32NetMask
                0x200228cc        0x4 ./lwip/lwiplib.o
 .bss.s_aliases.9063
                0x200228d0        0x4 ./lwip/src/api/netdb.o
 .bss.s_hostent.9062
                0x200228d4       0x14 ./lwip/src/api/netdb.o
 .bss.s_hostent_addr.9064
                0x200228e8        0x4 ./lwip/src/api/netdb.o
 .bss.s_hostname.9066
                0x200228ec      0x101 ./lwip/src/api/netdb.o
 *fill*         0x200229ed        0x3 
 .bss.s_phostent_addr.9065
                0x200229f0        0x8 ./lwip/src/api/netdb.o
 .bss.select_cb_list
                0x200229f8        0x4 ./lwip/src/api/sockets.o
 .bss.sockets   0x200229fc      0x100 ./lwip/src/api/sockets.o
 .bss.tcpip_init_done
                0x20022afc        0x4 ./lwip/src/api/tcpip.o
 .bss.tcpip_init_done_arg
                0x20022b00        0x4 ./lwip/src/api/tcpip.o
 .bss.tcpip_mbox
                0x20022b04        0x4 ./lwip/src/api/tcpip.o
 .bss.dns_last_pcb_idx
                0x20022b08        0x1 ./lwip/src/core/dns.o
 *fill*         0x20022b09        0x3 
 .bss.dns_pcbs  0x20022b0c       0x10 ./lwip/src/core/dns.o
 .bss.dns_requests
                0x20022b1c       0x30 ./lwip/src/core/dns.o
 .bss.dns_seqno
                0x20022b4c        0x1 ./lwip/src/core/dns.o
 *fill*         0x20022b4d        0x3 
 .bss.dns_servers
                0x20022b50        0x8 ./lwip/src/core/dns.o
 .bss.dns_table
                0x20022b58      0x440 ./lwip/src/core/dns.o
 .bss.lfree     0x20022f98        0x4 ./lwip/src/core/mem.o
 .bss.mem_mutex
                0x20022f9c        0x4 ./lwip/src/core/mem.o
 .bss.ram       0x20022fa0        0x4 ./lwip/src/core/mem.o
 .bss.ram_end   0x20022fa4        0x4 ./lwip/src/core/mem.o
 .bss.memp_tab_FRAG_PBUF
                0x20022fa8        0x4 ./lwip/src/core/memp.o
 .bss.memp_tab_NETBUF
                0x20022fac        0x4 ./lwip/src/core/memp.o
 .bss.memp_tab_NETCONN
                0x20022fb0        0x4 ./lwip/src/core/memp.o
 .bss.memp_tab_NETDB
                0x20022fb4        0x4 ./lwip/src/core/memp.o
 .bss.memp_tab_PBUF
                0x20022fb8        0x4 ./lwip/src/core/memp.o
 .bss.memp_tab_PBUF_POOL
                0x20022fbc        0x4 ./lwip/src/core/memp.o
 .bss.memp_tab_REASSDATA
                0x20022fc0        0x4 ./lwip/src/core/memp.o
 .bss.memp_tab_SYS_TIMEOUT
                0x20022fc4        0x4 ./lwip/src/core/memp.o
 .bss.memp_tab_TCPIP_MSG_API
                0x20022fc8        0x4 ./lwip/src/core/memp.o
 .bss.memp_tab_TCPIP_MSG_INPKT
                0x20022fcc        0x4 ./lwip/src/core/memp.o
 .bss.memp_tab_TCP_PCB
                0x20022fd0        0x4 ./lwip/src/core/memp.o
 .bss.memp_tab_TCP_PCB_LISTEN
                0x20022fd4        0x4 ./lwip/src/core/memp.o
 .bss.memp_tab_TCP_SEG
                0x20022fd8        0x4 ./lwip/src/core/memp.o
 .bss.memp_tab_UDP_PCB
                0x20022fdc        0x4 ./lwip/src/core/memp.o
 .bss.netif_num
                0x20022fe0        0x1 ./lwip/src/core/netif.o
 .bss.tcp_timer
                0x20022fe1        0x1 ./lwip/src/core/tcp.o
 .bss.tcp_timer_ctr
                0x20022fe2        0x1 ./lwip/src/core/tcp.o
 *fill*         0x20022fe3        0x1 
 .bss.ackno     0x20022fe4        0x4 ./lwip/src/core/tcp_in.o
 .bss.flags     0x20022fe8        0x1 ./lwip/src/core/tcp_in.o
 *fill*         0x20022fe9        0x3 
 .bss.inseg     0x20022fec       0x10 ./lwip/src/core/tcp_in.o
 .bss.recv_acked
                0x20022ffc        0x2 ./lwip/src/core/tcp_in.o
 *fill*         0x20022ffe        0x2 
 .bss.recv_data
                0x20023000        0x4 ./lwip/src/core/tcp_in.o
 .bss.recv_flags
                0x20023004        0x1 ./lwip/src/core/tcp_in.o
 *fill*         0x20023005        0x3 
 .bss.seqno     0x20023008        0x4 ./lwip/src/core/tcp_in.o
 .bss.tcp_optidx
                0x2002300c        0x2 ./lwip/src/core/tcp_in.o
 *fill*         0x2002300e        0x2 
 .bss.tcphdr    0x20023010        0x4 ./lwip/src/core/tcp_in.o
 .bss.tcphdr_opt1len
                0x20023014        0x2 ./lwip/src/core/tcp_in.o
 *fill*         0x20023016        0x2 
 .bss.tcphdr_opt2
                0x20023018        0x4 ./lwip/src/core/tcp_in.o
 .bss.tcphdr_optlen
                0x2002301c        0x2 ./lwip/src/core/tcp_in.o
 .bss.tcplen    0x2002301e        0x2 ./lwip/src/core/tcp_in.o
 .bss.current_timeout_due_time
                0x20023020        0x4 ./lwip/src/core/timeouts.o
 .bss.next_timeout
                0x20023024        0x4 ./lwip/src/core/timeouts.o
 .bss.tcpip_tcp_timer_active
                0x20023028        0x4 ./lwip/src/core/timeouts.o
 .bss.dhcp_pcb  0x2002302c        0x4 ./lwip/src/core/ipv4/dhcp.o
 .bss.dhcp_pcb_refcount
                0x20023030        0x1 ./lwip/src/core/ipv4/dhcp.o
 *fill*         0x20023031        0x3 
 .bss.xid.8455  0x20023034        0x4 ./lwip/src/core/ipv4/dhcp.o
 .bss.arp_table
                0x20023038       0xf0 ./lwip/src/core/ipv4/etharp.o
 .bss.etharp_cached_entry
                0x20023128        0x1 ./lwip/src/core/ipv4/etharp.o
 *fill*         0x20023129        0x1 
 .bss.ip_id     0x2002312a        0x2 ./lwip/src/core/ipv4/ip4.o
 .bss.str.7615  0x2002312c       0x10 ./lwip/src/core/ipv4/ip4_addr.o
 .bss.ip_reass_pbufcount
                0x2002313c        0x2 ./lwip/src/core/ipv4/ip4_frag.o
 *fill*         0x2002313e        0x2 
 .bss.reassdatagrams
                0x20023140        0x4 ./lwip/src/core/ipv4/ip4_frag.o
 .bss._PathLocale
                0x20023144        0x4 c:/ti/ccs1011/ccs/tools/compiler/gcc-arm-none-eabi-7-2017-q4-major-win32/bin/../lib/gcc/arm-none-eabi/7.2.1/../../../../arm-none-eabi/lib/thumb/v7e-m/fpv4-sp/hard\libg.a(lib_a-locale.o)
                0x20023144                _PathLocale
 .bss.__malloc_current_mallinfo
                0x20023148       0x28 c:/ti/ccs1011/ccs/tools/compiler/gcc-arm-none-eabi-7-2017-q4-major-win32/bin/../lib/gcc/arm-none-eabi/7.2.1/../../../../arm-none-eabi/lib/thumb/v7e-m/fpv4-sp/hard\libg.a(lib_a-mallocr.o)
                0x20023148                __malloc_current_mallinfo
 .bss.__malloc_max_sbrked_mem
                0x20023170        0x4 c:/ti/ccs1011/ccs/tools/compiler/gcc-arm-none-eabi-7-2017-q4-major-win32/bin/../lib/gcc/arm-none-eabi/7.2.1/../../../../arm-none-eabi/lib/thumb/v7e-m/fpv4-sp/hard\libg.a(lib_a-mallocr.o)
                0x20023170                __malloc_max_sbrked_mem
 .bss.__malloc_max_total_mem
                0x20023174        0x4 c:/ti/ccs1011/ccs/tools/compiler/gcc-arm-none-eabi-7-2017-q4-major-win32/bin/../lib/gcc/arm-none-eabi/7.2.1/../../../../arm-none-eabi/lib/thumb/v7e-m/fpv4-sp/hard\libg.a(lib_a-mallocr.o)
                0x20023174                __malloc_max_total_mem
 .bss.__malloc_top_pad
                0x20023178        0x4 c:/ti/ccs1011/ccs/tools/compiler/gcc-arm-none-eabi-7-2017-q4-major-win32/bin/../lib/gcc/arm-none-eabi/7.2.1/../../../../arm-none-eabi/lib/thumb/v7e-m/fpv4-sp/hard\libg.a(lib_a-mallocr.o)
                0x20023178                __malloc_top_pad
 .bss.heap_end.5377
                0x2002317c        0x4 c:/ti/ccs1011/ccs/tools/compiler/gcc-arm-none-eabi-7-2017-q4-major-win32/bin/../lib/gcc/arm-none-eabi/7.2.1/../../../../arm-none-eabi/lib/thumb/v7e-m/fpv4-sp/hard\libnosys.a(sbrk.o)
 *(COMMON)
 COMMON         0x20023180       0x40 ./main.o
                0x20023180                g_ui32IPAddress
                0x20023184                sNetIF
                0x200231bc                g_ui32SysClock
 COMMON         0x200231c0       0x40 ./FreeRTOS/queue.o
                0x200231c0                xQueueRegistry
 COMMON         0x20023200        0x4 ./lwip/lwiplib.o
                0x20023200                g_pfnTimerHandler
 COMMON         0x20023204      0x4b4 ./lwip/port/tiva-tm4c129.o
                0x20023204                g_sDriverStats
                0x20023230                g_pTxDescriptors
                0x20023590                g_pRxDescriptors
                0x200236b0                g_ui32AbnormalInts
                0x200236b4                g_ui32NormalInts
 COMMON         0x200236b8        0x4 ./lwip/src/api/netdb.o
                0x200236b8                h_errno
 COMMON         0x200236bc        0x4 ./lwip/src/api/tcpip.o
                0x200236bc                lock_tcpip_core
 COMMON         0x200236c0       0x18 ./lwip/src/core/ip.o
                0x200236c0                ip_data
 COMMON         0x200236d8     0x4013 ./lwip/src/core/mem.o
                0x200236d8                ram_heap
 *fill*         0x200276eb        0x1 
 COMMON         0x200276ec     0x7713 ./lwip/src/core/memp.o
                0x200276ec                memp_memory_NETDB_base
                0x20027824                memp_memory_NETBUF_base
                0x20027848                memp_memory_TCPIP_MSG_INPKT_base
                0x200278cc                memp_memory_TCP_SEG_base
                0x200279d0                memp_memory_PBUF_POOL_base
                0x2002da14                memp_memory_FRAG_PBUF_base
                0x2002db80                memp_memory_TCPIP_MSG_API_base
                0x2002dc04                memp_memory_PBUF_base
                0x2002de08                memp_memory_TCP_PCB_LISTEN_base
                0x2002deec                memp_memory_REASSDATA_base
                0x2002df90                memp_memory_UDP_PCB_base
                0x2002e0d4                memp_memory_NETCONN_base
                0x2002e3d8                memp_memory_TCP_PCB_base
                0x2002ed5c                memp_memory_SYS_TIMEOUT_base
 *fill*         0x2002edff        0x1 
 COMMON         0x2002ee00        0x8 ./lwip/src/core/netif.o
                0x2002ee00                netif_list
                0x2002ee04                netif_default
 COMMON         0x2002ee08       0x18 ./lwip/src/core/tcp.o
                0x2002ee08                tcp_active_pcbs_changed
                0x2002ee0c                tcp_active_pcbs
                0x2002ee10                tcp_ticks
                0x2002ee14                tcp_listen_pcbs
                0x2002ee18                tcp_bound_pcbs
                0x2002ee1c                tcp_tw_pcbs
 COMMON         0x2002ee20        0x4 ./lwip/src/core/tcp_in.o
                0x2002ee20                tcp_input_pcb
 COMMON         0x2002ee24        0x4 ./lwip/src/core/udp.o
                0x2002ee24                udp_pcbs
 COMMON         0x2002ee28       0x34 ./lwip/src/core/ipv4/dhcp.o
                0x2002ee28                dhcp_rx_options_given
                0x2002ee34                dhcp_rx_options_val
 COMMON         0x2002ee5c        0x4 ./lwip/system/OS/sys_arch.o
                0x2002ee5c                lwip_sys_mutex
 COMMON         0x2002ee60        0x4 c:/ti/ccs1011/ccs/tools/compiler/gcc-arm-none-eabi-7-2017-q4-major-win32/bin/../lib/gcc/arm-none-eabi/7.2.1/../../../../arm-none-eabi/lib/thumb/v7e-m/fpv4-sp/hard\libg.a(lib_a-reent.o)
                0x2002ee60                errno
 COMMON         0x2002ee64       0x21 c:/ti/ccs1011/ccs/tools/compiler/gcc-arm-none-eabi-7-2017-q4-major-win32/bin/../lib/gcc/arm-none-eabi/7.2.1/../../../../arm-none-eabi/lib/thumb/v7e-m/fpv4-sp/hard\libg.a(lib_a-lock.o)
                0x2002ee64                __lock___atexit_recursive_mutex
                0x2002ee68                __lock___arc4random_mutex
                0x2002ee6c                __lock___env_recursive_mutex
                0x2002ee70                __lock___sinit_recursive_mutex
                0x2002ee74                __lock___malloc_recursive_mutex
                0x2002ee78                __lock___at_quick_exit_mutex
                0x2002ee7c                __lock___dd_hash_mutex
                0x2002ee80                __lock___tz_mutex
                0x2002ee84                __lock___sfp_recursive_mutex
                0x2002ee88                . = ALIGN (0x4)
 *fill*         0x2002ee85        0x3 
                0x2002ee88                __bss_end__ = .

.heap           0x2002ee88        0x0
                0x2002ee88                __heap_start__ = .
                0x2002ee88                end = __heap_start__
                0x2002ee88                _end = end
                0x2002ee88                __end = end
 *(.heap)
                0x2002ee88                __heap_end__ = .
                0x2002ee88                __HeapLimit = __heap_end__

.stack          0x2002ee88        0x0
                0x2002ee88                _stack = .
                0x2002ee88                __stack = .
 *(.stack)
START GROUP
LOAD C:/ti/TivaWare_C_Series-2.2.0.295/driverlib/gcc/libdriver.a
END GROUP
START GROUP
LOAD c:/ti/ccs1011/ccs/tools/compiler/gcc-arm-none-eabi-7-2017-q4-major-win32/bin/../lib/gcc/arm-none-eabi/7.2.1/thumb/v7e-m/fpv4-sp/hard\libgcc.a
LOAD c:/ti/ccs1011/ccs/tools/compiler/gcc-arm-none-eabi-7-2017-q4-major-win32/bin/../lib/gcc/arm-none-eabi/7.2.1/../../../../arm-none-eabi/lib/thumb/v7e-m/fpv4-sp/hard\libg.a
LOAD c:/ti/ccs1011/ccs/tools/compiler/gcc-arm-none-eabi-7-2017-q4-major-win32/bin/../lib/gcc/arm-none-eabi/7.2.1/../../../../arm-none-eabi/lib/thumb/v7e-m/fpv4-sp/hard\libc.a
END GROUP
START GROUP
LOAD c:/ti/ccs1011/ccs/tools/compiler/gcc-arm-none-eabi-7-2017-q4-major-win32/bin/../lib/gcc/arm-none-eabi/7.2.1/thumb/v7e-m/fpv4-sp/hard\libgcc.a
LOAD c:/ti/ccs1011/ccs/tools/compiler/gcc-arm-none-eabi-7-2017-q4-major-win32/bin/../lib/gcc/arm-none-eabi/7.2.1/../../../../arm-none-eabi/lib/thumb/v7e-m/fpv4-sp/hard\libc.a
LOAD c:/ti/ccs1011/ccs/tools/compiler/gcc-arm-none-eabi-7-2017-q4-major-win32/bin/../lib/gcc/arm-none-eabi/7.2.1/../../../../arm-none-eabi/lib/thumb/v7e-m/fpv4-sp/hard\libnosys.a
END GROUP
LOAD c:/ti/ccs1011/ccs/tools/compiler/gcc-arm-none-eabi-7-2017-q4-major-win32/bin/../lib/gcc/arm-none-eabi/7.2.1/thumb/v7e-m/fpv4-sp/hard/crtend.o
LOAD c:/ti/ccs1011/ccs/tools/compiler/gcc-arm-none-eabi-7-2017-q4-major-win32/bin/../lib/gcc/arm-none-eabi/7.2.1/thumb/v7e-m/fpv4-sp/hard/crtn.o
OUTPUT(00 lwip_tiva.out elf32-littlearm)

.ARM.attributes
                0x00000000       0x30
 .ARM.attributes
                0x00000000       0x22 c:/ti/ccs1011/ccs/tools/compiler/gcc-arm-none-eabi-7-2017-q4-major-win32/bin/../lib/gcc/arm-none-eabi/7.2.1/thumb/v7e-m/fpv4-sp/hard/crti.o
 .ARM.attributes
                0x00000022       0x34 c:/ti/ccs1011/ccs/tools/compiler/gcc-arm-none-eabi-7-2017-q4-major-win32/bin/../lib/gcc/arm-none-eabi/7.2.1/thumb/v7e-m/fpv4-sp/hard/crtbegin.o
 .ARM.attributes
                0x00000056       0x20 c:/ti/ccs1011/ccs/tools/compiler/gcc-arm-none-eabi-7-2017-q4-major-win32/bin/../lib/gcc/arm-none-eabi/7.2.1/../../../../arm-none-eabi/lib/thumb/v7e-m/fpv4-sp/hard/crt0.o
 .ARM.attributes
                0x00000076       0x39 ./main.o
 .ARM.attributes
                0x000000af       0x39 ./tm4c1294ncpdt_startup_ccs_gcc.o
 .ARM.attributes
                0x000000e8       0x39 ./Drivers/pinout.o
 .ARM.attributes
                0x00000121       0x39 ./FreeRTOS/CMSIS_RTOS/cmsis_os.o
 .ARM.attributes
                0x0000015a       0x39 ./FreeRTOS/croutine.o
 .ARM.attributes
                0x00000193       0x39 ./FreeRTOS/event_groups.o
 .ARM.attributes
                0x000001cc       0x39 ./FreeRTOS/list.o
 .ARM.attributes
                0x00000205       0x39 ./FreeRTOS/queue.o
 .ARM.attributes
                0x0000023e       0x39 ./FreeRTOS/stream_buffer.o
 .ARM.attributes
                0x00000277       0x39 ./FreeRTOS/tasks.o
 .ARM.attributes
                0x000002b0       0x39 ./FreeRTOS/timers.o
 .ARM.attributes
                0x000002e9       0x39 ./FreeRTOS/portable/GCC/ARM_CM4F/port.o
 .ARM.attributes
                0x00000322       0x39 ./FreeRTOS/portable/MemMang/heap_4.o
 .ARM.attributes
                0x0000035b       0x39 ./lwip/apps/httpserver_raw/fs.o
 .ARM.attributes
                0x00000394       0x39 ./lwip/apps/httpserver_raw/httpd.o
 .ARM.attributes
                0x000003cd       0x39 ./lwip/lwiplib.o
 .ARM.attributes
                0x00000406       0x39 ./lwip/port/tiva-tm4c129.o
 .ARM.attributes
                0x0000043f       0x39 ./lwip/src/api/api_lib.o
 .ARM.attributes
                0x00000478       0x39 ./lwip/src/api/api_msg.o
 .ARM.attributes
                0x000004b1       0x39 ./lwip/src/api/err.o
 .ARM.attributes
                0x000004ea       0x39 ./lwip/src/api/if_api.o
 .ARM.attributes
                0x00000523       0x39 ./lwip/src/api/netbuf.o
 .ARM.attributes
                0x0000055c       0x39 ./lwip/src/api/netdb.o
 .ARM.attributes
                0x00000595       0x39 ./lwip/src/api/netifapi.o
 .ARM.attributes
                0x000005ce       0x39 ./lwip/src/api/sockets.o
 .ARM.attributes
                0x00000607       0x39 ./lwip/src/api/tcpip.o
 .ARM.attributes
                0x00000640       0x39 ./lwip/src/core/altcp.o
 .ARM.attributes
                0x00000679       0x39 ./lwip/src/core/altcp_alloc.o
 .ARM.attributes
                0x000006b2       0x39 ./lwip/src/core/altcp_tcp.o
 .ARM.attributes
                0x000006eb       0x39 ./lwip/src/core/def.o
 .ARM.attributes
                0x00000724       0x39 ./lwip/src/core/dns.o
 .ARM.attributes
                0x0000075d       0x39 ./lwip/src/core/inet_chksum.o
 .ARM.attributes
                0x00000796       0x39 ./lwip/src/core/init.o
 .ARM.attributes
                0x000007cf       0x39 ./lwip/src/core/ip.o
 .ARM.attributes
                0x00000808       0x39 ./lwip/src/core/mem.o
 .ARM.attributes
                0x00000841       0x39 ./lwip/src/core/memp.o
 .ARM.attributes
                0x0000087a       0x39 ./lwip/src/core/netif.o
 .ARM.attributes
                0x000008b3       0x39 ./lwip/src/core/pbuf.o
 .ARM.attributes
                0x000008ec       0x39 ./lwip/src/core/raw.o
 .ARM.attributes
                0x00000925       0x39 ./lwip/src/core/stats.o
 .ARM.attributes
                0x0000095e       0x39 ./lwip/src/core/sys.o
 .ARM.attributes
                0x00000997       0x39 ./lwip/src/core/tcp.o
 .ARM.attributes
                0x000009d0       0x39 ./lwip/src/core/tcp_in.o
 .ARM.attributes
                0x00000a09       0x39 ./lwip/src/core/tcp_out.o
 .ARM.attributes
                0x00000a42       0x39 ./lwip/src/core/timeouts.o
 .ARM.attributes
                0x00000a7b       0x39 ./lwip/src/core/udp.o
 .ARM.attributes
                0x00000ab4       0x39 ./lwip/src/core/ipv4/autoip.o
 .ARM.attributes
                0x00000aed       0x39 ./lwip/src/core/ipv4/dhcp.o
 .ARM.attributes
                0x00000b26       0x39 ./lwip/src/core/ipv4/etharp.o
 .ARM.attributes
                0x00000b5f       0x39 ./lwip/src/core/ipv4/icmp.o
 .ARM.attributes
                0x00000b98       0x39 ./lwip/src/core/ipv4/igmp.o
 .ARM.attributes
                0x00000bd1       0x39 ./lwip/src/core/ipv4/ip4.o
 .ARM.attributes
                0x00000c0a       0x39 ./lwip/src/core/ipv4/ip4_addr.o
 .ARM.attributes
                0x00000c43       0x39 ./lwip/src/core/ipv4/ip4_frag.o
 .ARM.attributes
                0x00000c7c       0x39 ./lwip/src/netif/ethernet.o
 .ARM.attributes
                0x00000cb5       0x39 ./lwip/src/netif/ppp/auth.o
 .ARM.attributes
                0x00000cee       0x39 ./lwip/src/netif/ppp/ccp.o
 .ARM.attributes
                0x00000d27       0x39 ./lwip/src/netif/ppp/chap-md5.o
 .ARM.attributes
                0x00000d60       0x39 ./lwip/src/netif/ppp/chap-new.o
 .ARM.attributes
                0x00000d99       0x39 ./lwip/src/netif/ppp/chap_ms.o
 .ARM.attributes
                0x00000dd2       0x39 ./lwip/src/netif/ppp/demand.o
 .ARM.attributes
                0x00000e0b       0x39 ./lwip/src/netif/ppp/eap.o
 .ARM.attributes
                0x00000e44       0x39 ./lwip/src/netif/ppp/ecp.o
 .ARM.attributes
                0x00000e7d       0x39 ./lwip/src/netif/ppp/eui64.o
 .ARM.attributes
                0x00000eb6       0x39 ./lwip/src/netif/ppp/fsm.o
 .ARM.attributes
                0x00000eef       0x39 ./lwip/src/netif/ppp/ipcp.o
 .ARM.attributes
                0x00000f28       0x39 ./lwip/src/netif/ppp/ipv6cp.o
 .ARM.attributes
                0x00000f61       0x39 ./lwip/src/netif/ppp/lcp.o
 .ARM.attributes
                0x00000f9a       0x39 ./lwip/src/netif/ppp/magic.o
 .ARM.attributes
                0x00000fd3       0x39 ./lwip/src/netif/ppp/mppe.o
 .ARM.attributes
                0x0000100c       0x39 ./lwip/src/netif/ppp/multilink.o
 .ARM.attributes
                0x00001045       0x39 ./lwip/src/netif/ppp/ppp.o
 .ARM.attributes
                0x0000107e       0x39 ./lwip/src/netif/ppp/pppapi.o
 .ARM.attributes
                0x000010b7       0x39 ./lwip/src/netif/ppp/pppcrypt.o
 .ARM.attributes
                0x000010f0       0x39 ./lwip/src/netif/ppp/pppoe.o
 .ARM.attributes
                0x00001129       0x39 ./lwip/src/netif/ppp/pppol2tp.o
 .ARM.attributes
                0x00001162       0x39 ./lwip/src/netif/ppp/pppos.o
 .ARM.attributes
                0x0000119b       0x39 ./lwip/src/netif/ppp/upap.o
 .ARM.attributes
                0x000011d4       0x39 ./lwip/src/netif/ppp/utils.o
 .ARM.attributes
                0x0000120d       0x39 ./lwip/src/netif/ppp/vj.o
 .ARM.attributes
                0x00001246       0x39 ./lwip/src/netif/ppp/polarssl/arc4.o
 .ARM.attributes
                0x0000127f       0x39 ./lwip/src/netif/ppp/polarssl/des.o
 .ARM.attributes
                0x000012b8       0x39 ./lwip/src/netif/ppp/polarssl/md4.o
 .ARM.attributes
                0x000012f1       0x39 ./lwip/src/netif/ppp/polarssl/md5.o
 .ARM.attributes
                0x0000132a       0x39 ./lwip/src/netif/ppp/polarssl/sha1.o
 .ARM.attributes
                0x00001363       0x39 ./lwip/system/OS/sys_arch.o
 .ARM.attributes
                0x0000139c       0x3b C:/ti/TivaWare_C_Series-2.2.0.295/driverlib/gcc/libdriver.a(emac.o)
 .ARM.attributes
                0x000013d7       0x3b C:/ti/TivaWare_C_Series-2.2.0.295/driverlib/gcc/libdriver.a(gpio.o)
 .ARM.attributes
                0x00001412       0x3b C:/ti/TivaWare_C_Series-2.2.0.295/driverlib/gcc/libdriver.a(interrupt.o)
 .ARM.attributes
                0x0000144d       0x3b C:/ti/TivaWare_C_Series-2.2.0.295/driverlib/gcc/libdriver.a(sw_crc.o)
 .ARM.attributes
                0x00001488       0x3b C:/ti/TivaWare_C_Series-2.2.0.295/driverlib/gcc/libdriver.a(sysctl.o)
 .ARM.attributes
                0x000014c3       0x3b C:/ti/TivaWare_C_Series-2.2.0.295/driverlib/gcc/libdriver.a(cpu.o)
 .ARM.attributes
                0x000014fe       0x34 c:/ti/ccs1011/ccs/tools/compiler/gcc-arm-none-eabi-7-2017-q4-major-win32/bin/../lib/gcc/arm-none-eabi/7.2.1/../../../../arm-none-eabi/lib/thumb/v7e-m/fpv4-sp/hard\libg.a(lib_a-atoi.o)
 .ARM.attributes
                0x00001532       0x34 c:/ti/ccs1011/ccs/tools/compiler/gcc-arm-none-eabi-7-2017-q4-major-win32/bin/../lib/gcc/arm-none-eabi/7.2.1/../../../../arm-none-eabi/lib/thumb/v7e-m/fpv4-sp/hard\libg.a(lib_a-exit.o)
 .ARM.attributes
                0x00001566       0x34 c:/ti/ccs1011/ccs/tools/compiler/gcc-arm-none-eabi-7-2017-q4-major-win32/bin/../lib/gcc/arm-none-eabi/7.2.1/../../../../arm-none-eabi/lib/thumb/v7e-m/fpv4-sp/hard\libg.a(lib_a-impure.o)
 .ARM.attributes
                0x0000159a       0x34 c:/ti/ccs1011/ccs/tools/compiler/gcc-arm-none-eabi-7-2017-q4-major-win32/bin/../lib/gcc/arm-none-eabi/7.2.1/../../../../arm-none-eabi/lib/thumb/v7e-m/fpv4-sp/hard\libg.a(lib_a-init.o)
 .ARM.attributes
                0x000015ce       0x34 c:/ti/ccs1011/ccs/tools/compiler/gcc-arm-none-eabi-7-2017-q4-major-win32/bin/../lib/gcc/arm-none-eabi/7.2.1/../../../../arm-none-eabi/lib/thumb/v7e-m/fpv4-sp/hard\libg.a(lib_a-locale.o)
 .ARM.attributes
                0x00001602       0x34 c:/ti/ccs1011/ccs/tools/compiler/gcc-arm-none-eabi-7-2017-q4-major-win32/bin/../lib/gcc/arm-none-eabi/7.2.1/../../../../arm-none-eabi/lib/thumb/v7e-m/fpv4-sp/hard\libg.a(lib_a-mbtowc_r.o)
 .ARM.attributes
                0x00001636       0x34 c:/ti/ccs1011/ccs/tools/compiler/gcc-arm-none-eabi-7-2017-q4-major-win32/bin/../lib/gcc/arm-none-eabi/7.2.1/../../../../arm-none-eabi/lib/thumb/v7e-m/fpv4-sp/hard\libg.a(lib_a-memcmp.o)
 .ARM.attributes
                0x0000166a       0x20 c:/ti/ccs1011/ccs/tools/compiler/gcc-arm-none-eabi-7-2017-q4-major-win32/bin/../lib/gcc/arm-none-eabi/7.2.1/../../../../arm-none-eabi/lib/thumb/v7e-m/fpv4-sp/hard\libg.a(lib_a-memcpy.o)
 .ARM.attributes
                0x0000168a       0x34 c:/ti/ccs1011/ccs/tools/compiler/gcc-arm-none-eabi-7-2017-q4-major-win32/bin/../lib/gcc/arm-none-eabi/7.2.1/../../../../arm-none-eabi/lib/thumb/v7e-m/fpv4-sp/hard\libg.a(lib_a-memmove.o)
 .ARM.attributes
                0x000016be       0x34 c:/ti/ccs1011/ccs/tools/compiler/gcc-arm-none-eabi-7-2017-q4-major-win32/bin/../lib/gcc/arm-none-eabi/7.2.1/../../../../arm-none-eabi/lib/thumb/v7e-m/fpv4-sp/hard\libg.a(lib_a-memset.o)
 .ARM.attributes
                0x000016f2       0x34 c:/ti/ccs1011/ccs/tools/compiler/gcc-arm-none-eabi-7-2017-q4-major-win32/bin/../lib/gcc/arm-none-eabi/7.2.1/../../../../arm-none-eabi/lib/thumb/v7e-m/fpv4-sp/hard\libg.a(lib_a-printf.o)
 .ARM.attributes
                0x00001726       0x34 c:/ti/ccs1011/ccs/tools/compiler/gcc-arm-none-eabi-7-2017-q4-major-win32/bin/../lib/gcc/arm-none-eabi/7.2.1/../../../../arm-none-eabi/lib/thumb/v7e-m/fpv4-sp/hard\libg.a(lib_a-rand.o)
 .ARM.attributes
                0x0000175a       0x34 c:/ti/ccs1011/ccs/tools/compiler/gcc-arm-none-eabi-7-2017-q4-major-win32/bin/../lib/gcc/arm-none-eabi/7.2.1/../../../../arm-none-eabi/lib/thumb/v7e-m/fpv4-sp/hard\libg.a(lib_a-reent.o)
 .ARM.attributes
                0x0000178e       0x34 c:/ti/ccs1011/ccs/tools/compiler/gcc-arm-none-eabi-7-2017-q4-major-win32/bin/../lib/gcc/arm-none-eabi/7.2.1/../../../../arm-none-eabi/lib/thumb/v7e-m/fpv4-sp/hard\libg.a(lib_a-sprintf.o)
 .ARM.attributes
                0x000017c2       0x34 c:/ti/ccs1011/ccs/tools/compiler/gcc-arm-none-eabi-7-2017-q4-major-win32/bin/../lib/gcc/arm-none-eabi/7.2.1/../../../../arm-none-eabi/lib/thumb/v7e-m/fpv4-sp/hard\libg.a(lib_a-strchr.o)
 .ARM.attributes
                0x000017f6       0x20 c:/ti/ccs1011/ccs/tools/compiler/gcc-arm-none-eabi-7-2017-q4-major-win32/bin/../lib/gcc/arm-none-eabi/7.2.1/../../../../arm-none-eabi/lib/thumb/v7e-m/fpv4-sp/hard\libg.a(lib_a-strcmp.o)
 .ARM.attributes
                0x00001816       0x20 c:/ti/ccs1011/ccs/tools/compiler/gcc-arm-none-eabi-7-2017-q4-major-win32/bin/../lib/gcc/arm-none-eabi/7.2.1/../../../../arm-none-eabi/lib/thumb/v7e-m/fpv4-sp/hard\libg.a(lib_a-strlen.o)
 .ARM.attributes
                0x00001836       0x34 c:/ti/ccs1011/ccs/tools/compiler/gcc-arm-none-eabi-7-2017-q4-major-win32/bin/../lib/gcc/arm-none-eabi/7.2.1/../../../../arm-none-eabi/lib/thumb/v7e-m/fpv4-sp/hard\libg.a(lib_a-strncmp.o)
 .ARM.attributes
                0x0000186a       0x34 c:/ti/ccs1011/ccs/tools/compiler/gcc-arm-none-eabi-7-2017-q4-major-win32/bin/../lib/gcc/arm-none-eabi/7.2.1/../../../../arm-none-eabi/lib/thumb/v7e-m/fpv4-sp/hard\libg.a(lib_a-strncpy.o)
 .ARM.attributes
                0x0000189e       0x34 c:/ti/ccs1011/ccs/tools/compiler/gcc-arm-none-eabi-7-2017-q4-major-win32/bin/../lib/gcc/arm-none-eabi/7.2.1/../../../../arm-none-eabi/lib/thumb/v7e-m/fpv4-sp/hard\libg.a(lib_a-strstr.o)
 .ARM.attributes
                0x000018d2       0x34 c:/ti/ccs1011/ccs/tools/compiler/gcc-arm-none-eabi-7-2017-q4-major-win32/bin/../lib/gcc/arm-none-eabi/7.2.1/../../../../arm-none-eabi/lib/thumb/v7e-m/fpv4-sp/hard\libg.a(lib_a-strtol.o)
 .ARM.attributes
                0x00001906       0x34 c:/ti/ccs1011/ccs/tools/compiler/gcc-arm-none-eabi-7-2017-q4-major-win32/bin/../lib/gcc/arm-none-eabi/7.2.1/../../../../arm-none-eabi/lib/thumb/v7e-m/fpv4-sp/hard\libg.a(lib_a-svfprintf.o)
 .ARM.attributes
                0x0000193a       0x34 c:/ti/ccs1011/ccs/tools/compiler/gcc-arm-none-eabi-7-2017-q4-major-win32/bin/../lib/gcc/arm-none-eabi/7.2.1/../../../../arm-none-eabi/lib/thumb/v7e-m/fpv4-sp/hard\libg.a(lib_a-vfprintf.o)
 .ARM.attributes
                0x0000196e       0x34 c:/ti/ccs1011/ccs/tools/compiler/gcc-arm-none-eabi-7-2017-q4-major-win32/bin/../lib/gcc/arm-none-eabi/7.2.1/../../../../arm-none-eabi/lib/thumb/v7e-m/fpv4-sp/hard\libg.a(lib_a-wctomb_r.o)
 .ARM.attributes
                0x000019a2       0x34 c:/ti/ccs1011/ccs/tools/compiler/gcc-arm-none-eabi-7-2017-q4-major-win32/bin/../lib/gcc/arm-none-eabi/7.2.1/../../../../arm-none-eabi/lib/thumb/v7e-m/fpv4-sp/hard\libg.a(lib_a-wsetup.o)
 .ARM.attributes
                0x000019d6       0x34 c:/ti/ccs1011/ccs/tools/compiler/gcc-arm-none-eabi-7-2017-q4-major-win32/bin/../lib/gcc/arm-none-eabi/7.2.1/../../../../arm-none-eabi/lib/thumb/v7e-m/fpv4-sp/hard\libg.a(lib_a-__call_atexit.o)
 .ARM.attributes
                0x00001a0a       0x34 c:/ti/ccs1011/ccs/tools/compiler/gcc-arm-none-eabi-7-2017-q4-major-win32/bin/../lib/gcc/arm-none-eabi/7.2.1/../../../../arm-none-eabi/lib/thumb/v7e-m/fpv4-sp/hard\libg.a(lib_a-atexit.o)
 .ARM.attributes
                0x00001a3e       0x34 c:/ti/ccs1011/ccs/tools/compiler/gcc-arm-none-eabi-7-2017-q4-major-win32/bin/../lib/gcc/arm-none-eabi/7.2.1/../../../../arm-none-eabi/lib/thumb/v7e-m/fpv4-sp/hard\libg.a(lib_a-ctype_.o)
 .ARM.attributes
                0x00001a72       0x34 c:/ti/ccs1011/ccs/tools/compiler/gcc-arm-none-eabi-7-2017-q4-major-win32/bin/../lib/gcc/arm-none-eabi/7.2.1/../../../../arm-none-eabi/lib/thumb/v7e-m/fpv4-sp/hard\libg.a(lib_a-dtoa.o)
 .ARM.attributes
                0x00001aa6       0x34 c:/ti/ccs1011/ccs/tools/compiler/gcc-arm-none-eabi-7-2017-q4-major-win32/bin/../lib/gcc/arm-none-eabi/7.2.1/../../../../arm-none-eabi/lib/thumb/v7e-m/fpv4-sp/hard\libg.a(lib_a-fflush.o)
 .ARM.attributes
                0x00001ada       0x34 c:/ti/ccs1011/ccs/tools/compiler/gcc-arm-none-eabi-7-2017-q4-major-win32/bin/../lib/gcc/arm-none-eabi/7.2.1/../../../../arm-none-eabi/lib/thumb/v7e-m/fpv4-sp/hard\libg.a(lib_a-findfp.o)
 .ARM.attributes
                0x00001b0e       0x34 c:/ti/ccs1011/ccs/tools/compiler/gcc-arm-none-eabi-7-2017-q4-major-win32/bin/../lib/gcc/arm-none-eabi/7.2.1/../../../../arm-none-eabi/lib/thumb/v7e-m/fpv4-sp/hard\libg.a(lib_a-fini.o)
 .ARM.attributes
                0x00001b42       0x34 c:/ti/ccs1011/ccs/tools/compiler/gcc-arm-none-eabi-7-2017-q4-major-win32/bin/../lib/gcc/arm-none-eabi/7.2.1/../../../../arm-none-eabi/lib/thumb/v7e-m/fpv4-sp/hard\libg.a(lib_a-freer.o)
 .ARM.attributes
                0x00001b76       0x34 c:/ti/ccs1011/ccs/tools/compiler/gcc-arm-none-eabi-7-2017-q4-major-win32/bin/../lib/gcc/arm-none-eabi/7.2.1/../../../../arm-none-eabi/lib/thumb/v7e-m/fpv4-sp/hard\libg.a(lib_a-fwalk.o)
 .ARM.attributes
                0x00001baa       0x34 c:/ti/ccs1011/ccs/tools/compiler/gcc-arm-none-eabi-7-2017-q4-major-win32/bin/../lib/gcc/arm-none-eabi/7.2.1/../../../../arm-none-eabi/lib/thumb/v7e-m/fpv4-sp/hard\libg.a(lib_a-localeconv.o)
 .ARM.attributes
                0x00001bde       0x34 c:/ti/ccs1011/ccs/tools/compiler/gcc-arm-none-eabi-7-2017-q4-major-win32/bin/../lib/gcc/arm-none-eabi/7.2.1/../../../../arm-none-eabi/lib/thumb/v7e-m/fpv4-sp/hard\libg.a(lib_a-lock.o)
 .ARM.attributes
                0x00001c12       0x34 c:/ti/ccs1011/ccs/tools/compiler/gcc-arm-none-eabi-7-2017-q4-major-win32/bin/../lib/gcc/arm-none-eabi/7.2.1/../../../../arm-none-eabi/lib/thumb/v7e-m/fpv4-sp/hard\libg.a(lib_a-makebuf.o)
 .ARM.attributes
                0x00001c46       0x34 c:/ti/ccs1011/ccs/tools/compiler/gcc-arm-none-eabi-7-2017-q4-major-win32/bin/../lib/gcc/arm-none-eabi/7.2.1/../../../../arm-none-eabi/lib/thumb/v7e-m/fpv4-sp/hard\libg.a(lib_a-mallocr.o)
 .ARM.attributes
                0x00001c7a       0x20 c:/ti/ccs1011/ccs/tools/compiler/gcc-arm-none-eabi-7-2017-q4-major-win32/bin/../lib/gcc/arm-none-eabi/7.2.1/../../../../arm-none-eabi/lib/thumb/v7e-m/fpv4-sp/hard\libg.a(lib_a-memchr.o)
 .ARM.attributes
                0x00001c9a       0x34 c:/ti/ccs1011/ccs/tools/compiler/gcc-arm-none-eabi-7-2017-q4-major-win32/bin/../lib/gcc/arm-none-eabi/7.2.1/../../../../arm-none-eabi/lib/thumb/v7e-m/fpv4-sp/hard\libg.a(lib_a-mlock.o)
 .ARM.attributes
                0x00001cce       0x34 c:/ti/ccs1011/ccs/tools/compiler/gcc-arm-none-eabi-7-2017-q4-major-win32/bin/../lib/gcc/arm-none-eabi/7.2.1/../../../../arm-none-eabi/lib/thumb/v7e-m/fpv4-sp/hard\libg.a(lib_a-mprec.o)
 .ARM.attributes
                0x00001d02       0x34 c:/ti/ccs1011/ccs/tools/compiler/gcc-arm-none-eabi-7-2017-q4-major-win32/bin/../lib/gcc/arm-none-eabi/7.2.1/../../../../arm-none-eabi/lib/thumb/v7e-m/fpv4-sp/hard\libg.a(lib_a-sbrkr.o)
 .ARM.attributes
                0x00001d36       0x34 c:/ti/ccs1011/ccs/tools/compiler/gcc-arm-none-eabi-7-2017-q4-major-win32/bin/../lib/gcc/arm-none-eabi/7.2.1/../../../../arm-none-eabi/lib/thumb/v7e-m/fpv4-sp/hard\libg.a(lib_a-stdio.o)
 .ARM.attributes
                0x00001d6a       0x34 c:/ti/ccs1011/ccs/tools/compiler/gcc-arm-none-eabi-7-2017-q4-major-win32/bin/../lib/gcc/arm-none-eabi/7.2.1/../../../../arm-none-eabi/lib/thumb/v7e-m/fpv4-sp/hard\libg.a(lib_a-svfiprintf.o)
 .ARM.attributes
                0x00001d9e       0x34 c:/ti/ccs1011/ccs/tools/compiler/gcc-arm-none-eabi-7-2017-q4-major-win32/bin/../lib/gcc/arm-none-eabi/7.2.1/../../../../arm-none-eabi/lib/thumb/v7e-m/fpv4-sp/hard\libg.a(lib_a-vfiprintf.o)
 .ARM.attributes
                0x00001dd2       0x34 c:/ti/ccs1011/ccs/tools/compiler/gcc-arm-none-eabi-7-2017-q4-major-win32/bin/../lib/gcc/arm-none-eabi/7.2.1/../../../../arm-none-eabi/lib/thumb/v7e-m/fpv4-sp/hard\libg.a(lib_a-writer.o)
 .ARM.attributes
                0x00001e06       0x34 c:/ti/ccs1011/ccs/tools/compiler/gcc-arm-none-eabi-7-2017-q4-major-win32/bin/../lib/gcc/arm-none-eabi/7.2.1/../../../../arm-none-eabi/lib/thumb/v7e-m/fpv4-sp/hard\libg.a(lib_a-__atexit.o)
 .ARM.attributes
                0x00001e3a       0x34 c:/ti/ccs1011/ccs/tools/compiler/gcc-arm-none-eabi-7-2017-q4-major-win32/bin/../lib/gcc/arm-none-eabi/7.2.1/../../../../arm-none-eabi/lib/thumb/v7e-m/fpv4-sp/hard\libg.a(lib_a-callocr.o)
 .ARM.attributes
                0x00001e6e       0x34 c:/ti/ccs1011/ccs/tools/compiler/gcc-arm-none-eabi-7-2017-q4-major-win32/bin/../lib/gcc/arm-none-eabi/7.2.1/../../../../arm-none-eabi/lib/thumb/v7e-m/fpv4-sp/hard\libg.a(lib_a-closer.o)
 .ARM.attributes
                0x00001ea2       0x34 c:/ti/ccs1011/ccs/tools/compiler/gcc-arm-none-eabi-7-2017-q4-major-win32/bin/../lib/gcc/arm-none-eabi/7.2.1/../../../../arm-none-eabi/lib/thumb/v7e-m/fpv4-sp/hard\libg.a(lib_a-fclose.o)
 .ARM.attributes
                0x00001ed6       0x34 c:/ti/ccs1011/ccs/tools/compiler/gcc-arm-none-eabi-7-2017-q4-major-win32/bin/../lib/gcc/arm-none-eabi/7.2.1/../../../../arm-none-eabi/lib/thumb/v7e-m/fpv4-sp/hard\libg.a(lib_a-fputwc.o)
 .ARM.attributes
                0x00001f0a       0x34 c:/ti/ccs1011/ccs/tools/compiler/gcc-arm-none-eabi-7-2017-q4-major-win32/bin/../lib/gcc/arm-none-eabi/7.2.1/../../../../arm-none-eabi/lib/thumb/v7e-m/fpv4-sp/hard\libg.a(lib_a-fstatr.o)
 .ARM.attributes
                0x00001f3e       0x34 c:/ti/ccs1011/ccs/tools/compiler/gcc-arm-none-eabi-7-2017-q4-major-win32/bin/../lib/gcc/arm-none-eabi/7.2.1/../../../../arm-none-eabi/lib/thumb/v7e-m/fpv4-sp/hard\libg.a(lib_a-fvwrite.o)
 .ARM.attributes
                0x00001f72       0x34 c:/ti/ccs1011/ccs/tools/compiler/gcc-arm-none-eabi-7-2017-q4-major-win32/bin/../lib/gcc/arm-none-eabi/7.2.1/../../../../arm-none-eabi/lib/thumb/v7e-m/fpv4-sp/hard\libg.a(lib_a-isattyr.o)
 .ARM.attributes
                0x00001fa6       0x34 c:/ti/ccs1011/ccs/tools/compiler/gcc-arm-none-eabi-7-2017-q4-major-win32/bin/../lib/gcc/arm-none-eabi/7.2.1/../../../../arm-none-eabi/lib/thumb/v7e-m/fpv4-sp/hard\libg.a(lib_a-lseekr.o)
 .ARM.attributes
                0x00001fda       0x34 c:/ti/ccs1011/ccs/tools/compiler/gcc-arm-none-eabi-7-2017-q4-major-win32/bin/../lib/gcc/arm-none-eabi/7.2.1/../../../../arm-none-eabi/lib/thumb/v7e-m/fpv4-sp/hard\libg.a(lib_a-readr.o)
 .ARM.attributes
                0x0000200e       0x34 c:/ti/ccs1011/ccs/tools/compiler/gcc-arm-none-eabi-7-2017-q4-major-win32/bin/../lib/gcc/arm-none-eabi/7.2.1/../../../../arm-none-eabi/lib/thumb/v7e-m/fpv4-sp/hard\libg.a(lib_a-reallocr.o)
 .ARM.attributes
                0x00002042       0x34 c:/ti/ccs1011/ccs/tools/compiler/gcc-arm-none-eabi-7-2017-q4-major-win32/bin/../lib/gcc/arm-none-eabi/7.2.1/../../../../arm-none-eabi/lib/thumb/v7e-m/fpv4-sp/hard\libg.a(lib_a-wbuf.o)
 .ARM.attributes
                0x00002076       0x34 c:/ti/ccs1011/ccs/tools/compiler/gcc-arm-none-eabi-7-2017-q4-major-win32/bin/../lib/gcc/arm-none-eabi/7.2.1/../../../../arm-none-eabi/lib/thumb/v7e-m/fpv4-sp/hard\libg.a(lib_a-wcrtomb.o)
 .ARM.attributes
                0x000020aa       0x22 c:/ti/ccs1011/ccs/tools/compiler/gcc-arm-none-eabi-7-2017-q4-major-win32/bin/../lib/gcc/arm-none-eabi/7.2.1/thumb/v7e-m/fpv4-sp/hard\libgcc.a(_arm_addsubdf3.o)
 .ARM.attributes
                0x000020cc       0x22 c:/ti/ccs1011/ccs/tools/compiler/gcc-arm-none-eabi-7-2017-q4-major-win32/bin/../lib/gcc/arm-none-eabi/7.2.1/thumb/v7e-m/fpv4-sp/hard\libgcc.a(_arm_muldivdf3.o)
 .ARM.attributes
                0x000020ee       0x22 c:/ti/ccs1011/ccs/tools/compiler/gcc-arm-none-eabi-7-2017-q4-major-win32/bin/../lib/gcc/arm-none-eabi/7.2.1/thumb/v7e-m/fpv4-sp/hard\libgcc.a(_arm_cmpdf2.o)
 .ARM.attributes
                0x00002110       0x22 c:/ti/ccs1011/ccs/tools/compiler/gcc-arm-none-eabi-7-2017-q4-major-win32/bin/../lib/gcc/arm-none-eabi/7.2.1/thumb/v7e-m/fpv4-sp/hard\libgcc.a(_arm_unorddf2.o)
 .ARM.attributes
                0x00002132       0x22 c:/ti/ccs1011/ccs/tools/compiler/gcc-arm-none-eabi-7-2017-q4-major-win32/bin/../lib/gcc/arm-none-eabi/7.2.1/thumb/v7e-m/fpv4-sp/hard\libgcc.a(_arm_fixdfsi.o)
 .ARM.attributes
                0x00002154       0x22 c:/ti/ccs1011/ccs/tools/compiler/gcc-arm-none-eabi-7-2017-q4-major-win32/bin/../lib/gcc/arm-none-eabi/7.2.1/thumb/v7e-m/fpv4-sp/hard\libgcc.a(_aeabi_uldivmod.o)
 .ARM.attributes
                0x00002176       0x34 c:/ti/ccs1011/ccs/tools/compiler/gcc-arm-none-eabi-7-2017-q4-major-win32/bin/../lib/gcc/arm-none-eabi/7.2.1/thumb/v7e-m/fpv4-sp/hard\libgcc.a(_udivmoddi4.o)
 .ARM.attributes
                0x000021aa       0x22 c:/ti/ccs1011/ccs/tools/compiler/gcc-arm-none-eabi-7-2017-q4-major-win32/bin/../lib/gcc/arm-none-eabi/7.2.1/thumb/v7e-m/fpv4-sp/hard\libgcc.a(_dvmd_tls.o)
 .ARM.attributes
                0x000021cc       0x34 c:/ti/ccs1011/ccs/tools/compiler/gcc-arm-none-eabi-7-2017-q4-major-win32/bin/../lib/gcc/arm-none-eabi/7.2.1/../../../../arm-none-eabi/lib/thumb/v7e-m/fpv4-sp/hard\libnosys.a(close.o)
 .ARM.attributes
                0x00002200       0x34 c:/ti/ccs1011/ccs/tools/compiler/gcc-arm-none-eabi-7-2017-q4-major-win32/bin/../lib/gcc/arm-none-eabi/7.2.1/../../../../arm-none-eabi/lib/thumb/v7e-m/fpv4-sp/hard\libnosys.a(fstat.o)
 .ARM.attributes
                0x00002234       0x34 c:/ti/ccs1011/ccs/tools/compiler/gcc-arm-none-eabi-7-2017-q4-major-win32/bin/../lib/gcc/arm-none-eabi/7.2.1/../../../../arm-none-eabi/lib/thumb/v7e-m/fpv4-sp/hard\libnosys.a(isatty.o)
 .ARM.attributes
                0x00002268       0x34 c:/ti/ccs1011/ccs/tools/compiler/gcc-arm-none-eabi-7-2017-q4-major-win32/bin/../lib/gcc/arm-none-eabi/7.2.1/../../../../arm-none-eabi/lib/thumb/v7e-m/fpv4-sp/hard\libnosys.a(lseek.o)
 .ARM.attributes
                0x0000229c       0x34 c:/ti/ccs1011/ccs/tools/compiler/gcc-arm-none-eabi-7-2017-q4-major-win32/bin/../lib/gcc/arm-none-eabi/7.2.1/../../../../arm-none-eabi/lib/thumb/v7e-m/fpv4-sp/hard\libnosys.a(read.o)
 .ARM.attributes
                0x000022d0       0x34 c:/ti/ccs1011/ccs/tools/compiler/gcc-arm-none-eabi-7-2017-q4-major-win32/bin/../lib/gcc/arm-none-eabi/7.2.1/../../../../arm-none-eabi/lib/thumb/v7e-m/fpv4-sp/hard\libnosys.a(sbrk.o)
 .ARM.attributes
                0x00002304       0x34 c:/ti/ccs1011/ccs/tools/compiler/gcc-arm-none-eabi-7-2017-q4-major-win32/bin/../lib/gcc/arm-none-eabi/7.2.1/../../../../arm-none-eabi/lib/thumb/v7e-m/fpv4-sp/hard\libnosys.a(write.o)
 .ARM.attributes
                0x00002338       0x34 c:/ti/ccs1011/ccs/tools/compiler/gcc-arm-none-eabi-7-2017-q4-major-win32/bin/../lib/gcc/arm-none-eabi/7.2.1/../../../../arm-none-eabi/lib/thumb/v7e-m/fpv4-sp/hard\libnosys.a(_exit.o)
 .ARM.attributes
                0x0000236c       0x34 c:/ti/ccs1011/ccs/tools/compiler/gcc-arm-none-eabi-7-2017-q4-major-win32/bin/../lib/gcc/arm-none-eabi/7.2.1/thumb/v7e-m/fpv4-sp/hard/crtend.o
 .ARM.attributes
                0x000023a0       0x22 c:/ti/ccs1011/ccs/tools/compiler/gcc-arm-none-eabi-7-2017-q4-major-win32/bin/../lib/gcc/arm-none-eabi/7.2.1/thumb/v7e-m/fpv4-sp/hard/crtn.o

.comment        0x00000000       0xee
 .comment       0x00000000       0x7e ./main.o
                                 0x7f (size before relaxing)
 .comment       0x0000007e       0x7f ./tm4c1294ncpdt_startup_ccs_gcc.o
 .comment       0x0000007e       0x7f ./Drivers/pinout.o
 .comment       0x0000007e       0x7f ./FreeRTOS/CMSIS_RTOS/cmsis_os.o
 .comment       0x0000007e       0x7f ./FreeRTOS/croutine.o
 .comment       0x0000007e       0x7f ./FreeRTOS/event_groups.o
 .comment       0x0000007e       0x7f ./FreeRTOS/list.o
 .comment       0x0000007e       0x7f ./FreeRTOS/queue.o
 .comment       0x0000007e       0x7f ./FreeRTOS/stream_buffer.o
 .comment       0x0000007e       0x7f ./FreeRTOS/tasks.o
 .comment       0x0000007e       0x7f ./FreeRTOS/timers.o
 .comment       0x0000007e       0x7f ./FreeRTOS/portable/GCC/ARM_CM4F/port.o
 .comment       0x0000007e       0x7f ./FreeRTOS/portable/MemMang/heap_4.o
 .comment       0x0000007e       0x7f ./lwip/apps/httpserver_raw/fs.o
 .comment       0x0000007e       0x7f ./lwip/apps/httpserver_raw/httpd.o
 .comment       0x0000007e       0x7f ./lwip/lwiplib.o
 .comment       0x0000007e       0x7f ./lwip/port/tiva-tm4c129.o
 .comment       0x0000007e       0x7f ./lwip/src/api/api_lib.o
 .comment       0x0000007e       0x7f ./lwip/src/api/api_msg.o
 .comment       0x0000007e       0x7f ./lwip/src/api/err.o
 .comment       0x0000007e       0x7f ./lwip/src/api/if_api.o
 .comment       0x0000007e       0x7f ./lwip/src/api/netbuf.o
 .comment       0x0000007e       0x7f ./lwip/src/api/netdb.o
 .comment       0x0000007e       0x7f ./lwip/src/api/netifapi.o
 .comment       0x0000007e       0x7f ./lwip/src/api/sockets.o
 .comment       0x0000007e       0x7f ./lwip/src/api/tcpip.o
 .comment       0x0000007e       0x7f ./lwip/src/core/altcp.o
 .comment       0x0000007e       0x7f ./lwip/src/core/altcp_alloc.o
 .comment       0x0000007e       0x7f ./lwip/src/core/altcp_tcp.o
 .comment       0x0000007e       0x7f ./lwip/src/core/def.o
 .comment       0x0000007e       0x7f ./lwip/src/core/dns.o
 .comment       0x0000007e       0x7f ./lwip/src/core/inet_chksum.o
 .comment       0x0000007e       0x7f ./lwip/src/core/init.o
 .comment       0x0000007e       0x7f ./lwip/src/core/ip.o
 .comment       0x0000007e       0x7f ./lwip/src/core/mem.o
 .comment       0x0000007e       0x7f ./lwip/src/core/memp.o
 .comment       0x0000007e       0x7f ./lwip/src/core/netif.o
 .comment       0x0000007e       0x7f ./lwip/src/core/pbuf.o
 .comment       0x0000007e       0x7f ./lwip/src/core/raw.o
 .comment       0x0000007e       0x7f ./lwip/src/core/stats.o
 .comment       0x0000007e       0x7f ./lwip/src/core/sys.o
 .comment       0x0000007e       0x7f ./lwip/src/core/tcp.o
 .comment       0x0000007e       0x7f ./lwip/src/core/tcp_in.o
 .comment       0x0000007e       0x7f ./lwip/src/core/tcp_out.o
 .comment       0x0000007e       0x7f ./lwip/src/core/timeouts.o
 .comment       0x0000007e       0x7f ./lwip/src/core/udp.o
 .comment       0x0000007e       0x7f ./lwip/src/core/ipv4/autoip.o
 .comment       0x0000007e       0x7f ./lwip/src/core/ipv4/dhcp.o
 .comment       0x0000007e       0x7f ./lwip/src/core/ipv4/etharp.o
 .comment       0x0000007e       0x7f ./lwip/src/core/ipv4/icmp.o
 .comment       0x0000007e       0x7f ./lwip/src/core/ipv4/igmp.o
 .comment       0x0000007e       0x7f ./lwip/src/core/ipv4/ip4.o
 .comment       0x0000007e       0x7f ./lwip/src/core/ipv4/ip4_addr.o
 .comment       0x0000007e       0x7f ./lwip/src/core/ipv4/ip4_frag.o
 .comment       0x0000007e       0x7f ./lwip/src/netif/ethernet.o
 .comment       0x0000007e       0x7f ./lwip/src/netif/ppp/auth.o
 .comment       0x0000007e       0x7f ./lwip/src/netif/ppp/ccp.o
 .comment       0x0000007e       0x7f ./lwip/src/netif/ppp/chap-md5.o
 .comment       0x0000007e       0x7f ./lwip/src/netif/ppp/chap-new.o
 .comment       0x0000007e       0x7f ./lwip/src/netif/ppp/chap_ms.o
 .comment       0x0000007e       0x7f ./lwip/src/netif/ppp/demand.o
 .comment       0x0000007e       0x7f ./lwip/src/netif/ppp/eap.o
 .comment       0x0000007e       0x7f ./lwip/src/netif/ppp/ecp.o
 .comment       0x0000007e       0x7f ./lwip/src/netif/ppp/eui64.o
 .comment       0x0000007e       0x7f ./lwip/src/netif/ppp/fsm.o
 .comment       0x0000007e       0x7f ./lwip/src/netif/ppp/ipcp.o
 .comment       0x0000007e       0x7f ./lwip/src/netif/ppp/ipv6cp.o
 .comment       0x0000007e       0x7f ./lwip/src/netif/ppp/lcp.o
 .comment       0x0000007e       0x7f ./lwip/src/netif/ppp/magic.o
 .comment       0x0000007e       0x7f ./lwip/src/netif/ppp/mppe.o
 .comment       0x0000007e       0x7f ./lwip/src/netif/ppp/multilink.o
 .comment       0x0000007e       0x7f ./lwip/src/netif/ppp/ppp.o
 .comment       0x0000007e       0x7f ./lwip/src/netif/ppp/pppapi.o
 .comment       0x0000007e       0x7f ./lwip/src/netif/ppp/pppcrypt.o
 .comment       0x0000007e       0x7f ./lwip/src/netif/ppp/pppoe.o
 .comment       0x0000007e       0x7f ./lwip/src/netif/ppp/pppol2tp.o
 .comment       0x0000007e       0x7f ./lwip/src/netif/ppp/pppos.o
 .comment       0x0000007e       0x7f ./lwip/src/netif/ppp/upap.o
 .comment       0x0000007e       0x7f ./lwip/src/netif/ppp/utils.o
 .comment       0x0000007e       0x7f ./lwip/src/netif/ppp/vj.o
 .comment       0x0000007e       0x7f ./lwip/src/netif/ppp/polarssl/arc4.o
 .comment       0x0000007e       0x7f ./lwip/src/netif/ppp/polarssl/des.o
 .comment       0x0000007e       0x7f ./lwip/src/netif/ppp/polarssl/md4.o
 .comment       0x0000007e       0x7f ./lwip/src/netif/ppp/polarssl/md5.o
 .comment       0x0000007e       0x7f ./lwip/src/netif/ppp/polarssl/sha1.o
 .comment       0x0000007e       0x7f ./lwip/system/OS/sys_arch.o
 .comment       0x0000007e       0x70 C:/ti/TivaWare_C_Series-2.2.0.295/driverlib/gcc/libdriver.a(emac.o)
                                 0x71 (size before relaxing)
 .comment       0x000000ee       0x71 C:/ti/TivaWare_C_Series-2.2.0.295/driverlib/gcc/libdriver.a(gpio.o)
 .comment       0x000000ee       0x71 C:/ti/TivaWare_C_Series-2.2.0.295/driverlib/gcc/libdriver.a(interrupt.o)
 .comment       0x000000ee       0x71 C:/ti/TivaWare_C_Series-2.2.0.295/driverlib/gcc/libdriver.a(sw_crc.o)
 .comment       0x000000ee       0x71 C:/ti/TivaWare_C_Series-2.2.0.295/driverlib/gcc/libdriver.a(sysctl.o)
 .comment       0x000000ee       0x71 C:/ti/TivaWare_C_Series-2.2.0.295/driverlib/gcc/libdriver.a(cpu.o)

.debug_info     0x00000000    0x56af4
 .debug_info    0x00000000     0x1229 ./main.o
 .debug_info    0x00001229      0x18d ./tm4c1294ncpdt_startup_ccs_gcc.o
 .debug_info    0x000013b6      0x124 ./Drivers/pinout.o
 .debug_info    0x000014da     0x1c4e ./FreeRTOS/CMSIS_RTOS/cmsis_os.o
 .debug_info    0x00003128       0x72 ./FreeRTOS/croutine.o
 .debug_info    0x0000319a     0x10a8 ./FreeRTOS/event_groups.o
 .debug_info    0x00004242      0xae2 ./FreeRTOS/list.o
 .debug_info    0x00004d24     0x1f1c ./FreeRTOS/queue.o
 .debug_info    0x00006c40     0x1969 ./FreeRTOS/stream_buffer.o
 .debug_info    0x000085a9     0x254a ./FreeRTOS/tasks.o
 .debug_info    0x0000aaf3     0x1498 ./FreeRTOS/timers.o
 .debug_info    0x0000bf8b      0x518 ./FreeRTOS/portable/GCC/ARM_CM4F/port.o
 .debug_info    0x0000c4a3      0xd0c ./FreeRTOS/portable/MemMang/heap_4.o
 .debug_info    0x0000d1af      0xbfd ./lwip/apps/httpserver_raw/fs.o
 .debug_info    0x0000ddac     0x259a ./lwip/apps/httpserver_raw/httpd.o
 .debug_info    0x00010346     0x14d2 ./lwip/lwiplib.o
 .debug_info    0x00011818     0x14bc ./lwip/port/tiva-tm4c129.o
 .debug_info    0x00012cd4     0x26d0 ./lwip/src/api/api_lib.o
 .debug_info    0x000153a4     0x2618 ./lwip/src/api/api_msg.o
 .debug_info    0x000179bc      0x98e ./lwip/src/api/err.o
 .debug_info    0x0001834a      0xda0 ./lwip/src/api/if_api.o
 .debug_info    0x000190ea      0xe5e ./lwip/src/api/netbuf.o
 .debug_info    0x00019f48     0x137c ./lwip/src/api/netdb.o
 .debug_info    0x0001b2c4      0x8fb ./lwip/src/api/netifapi.o
 .debug_info    0x0001bbbf     0x3e4c ./lwip/src/api/sockets.o
 .debug_info    0x0001fa0b     0x15a5 ./lwip/src/api/tcpip.o
 .debug_info    0x00020fb0      0x8fb ./lwip/src/core/altcp.o
 .debug_info    0x000218ab      0x8fb ./lwip/src/core/altcp_alloc.o
 .debug_info    0x000221a6      0x8fb ./lwip/src/core/altcp_tcp.o
 .debug_info    0x00022aa1      0xbaa ./lwip/src/core/def.o
 .debug_info    0x0002364b     0x1aa3 ./lwip/src/core/dns.o
 .debug_info    0x000250ee      0xea5 ./lwip/src/core/inet_chksum.o
 .debug_info    0x00025f93     0x164e ./lwip/src/core/init.o
 .debug_info    0x000275e1      0xe6a ./lwip/src/core/ip.o
 .debug_info    0x0002844b      0xf66 ./lwip/src/core/mem.o
 .debug_info    0x000293b1     0x1cc5 ./lwip/src/core/memp.o
 .debug_info    0x0002b076     0x1d74 ./lwip/src/core/netif.o
 .debug_info    0x0002cdea     0x1c7f ./lwip/src/core/pbuf.o
 .debug_info    0x0002ea69      0x8fb ./lwip/src/core/raw.o
 .debug_info    0x0002f364      0x8fb ./lwip/src/core/stats.o
 .debug_info    0x0002fc5f      0xa41 ./lwip/src/core/sys.o
 .debug_info    0x000306a0     0x262b ./lwip/src/core/tcp.o
 .debug_info    0x00032ccb     0x1ac8 ./lwip/src/core/tcp_in.o
 .debug_info    0x00034793     0x229d ./lwip/src/core/tcp_out.o
 .debug_info    0x00036a30     0x19ef ./lwip/src/core/timeouts.o
 .debug_info    0x0003841f     0x167d ./lwip/src/core/udp.o
 .debug_info    0x00039a9c      0x8fb ./lwip/src/core/ipv4/autoip.o
 .debug_info    0x0003a397     0x222b ./lwip/src/core/ipv4/dhcp.o
 .debug_info    0x0003c5c2     0x18fe ./lwip/src/core/ipv4/etharp.o
 .debug_info    0x0003dec0     0x1120 ./lwip/src/core/ipv4/icmp.o
 .debug_info    0x0003efe0      0x8fb ./lwip/src/core/ipv4/igmp.o
 .debug_info    0x0003f8db     0x1a0f ./lwip/src/core/ipv4/ip4.o
 .debug_info    0x000412ea      0xff6 ./lwip/src/core/ipv4/ip4_addr.o
 .debug_info    0x000422e0     0x163e ./lwip/src/core/ipv4/ip4_frag.o
 .debug_info    0x0004391e     0x10e2 ./lwip/src/netif/ethernet.o
 .debug_info    0x00044a00      0x8fb ./lwip/src/netif/ppp/auth.o
 .debug_info    0x000452fb      0x8fb ./lwip/src/netif/ppp/ccp.o
 .debug_info    0x00045bf6      0x8fb ./lwip/src/netif/ppp/chap-md5.o
 .debug_info    0x000464f1      0x8fb ./lwip/src/netif/ppp/chap-new.o
 .debug_info    0x00046dec      0x8fb ./lwip/src/netif/ppp/chap_ms.o
 .debug_info    0x000476e7      0x8fb ./lwip/src/netif/ppp/demand.o
 .debug_info    0x00047fe2      0x8fb ./lwip/src/netif/ppp/eap.o
 .debug_info    0x000488dd      0x8fb ./lwip/src/netif/ppp/ecp.o
 .debug_info    0x000491d8      0x8fb ./lwip/src/netif/ppp/eui64.o
 .debug_info    0x00049ad3      0x8fb ./lwip/src/netif/ppp/fsm.o
 .debug_info    0x0004a3ce      0x8fb ./lwip/src/netif/ppp/ipcp.o
 .debug_info    0x0004acc9      0x8fb ./lwip/src/netif/ppp/ipv6cp.o
 .debug_info    0x0004b5c4      0x8fb ./lwip/src/netif/ppp/lcp.o
 .debug_info    0x0004bebf      0x8fb ./lwip/src/netif/ppp/magic.o
 .debug_info    0x0004c7ba      0x8fb ./lwip/src/netif/ppp/mppe.o
 .debug_info    0x0004d0b5      0x8fb ./lwip/src/netif/ppp/multilink.o
 .debug_info    0x0004d9b0      0x8fb ./lwip/src/netif/ppp/ppp.o
 .debug_info    0x0004e2ab      0x8fb ./lwip/src/netif/ppp/pppapi.o
 .debug_info    0x0004eba6      0x8fb ./lwip/src/netif/ppp/pppcrypt.o
 .debug_info    0x0004f4a1      0x8fb ./lwip/src/netif/ppp/pppoe.o
 .debug_info    0x0004fd9c      0x8fb ./lwip/src/netif/ppp/pppol2tp.o
 .debug_info    0x00050697      0x8fb ./lwip/src/netif/ppp/pppos.o
 .debug_info    0x00050f92      0x8fb ./lwip/src/netif/ppp/upap.o
 .debug_info    0x0005188d      0x8fb ./lwip/src/netif/ppp/utils.o
 .debug_info    0x00052188      0x8fb ./lwip/src/netif/ppp/vj.o
 .debug_info    0x00052a83      0x8fb ./lwip/src/netif/ppp/polarssl/arc4.o
 .debug_info    0x0005337e      0x8fb ./lwip/src/netif/ppp/polarssl/des.o
 .debug_info    0x00053c79      0x8fb ./lwip/src/netif/ppp/polarssl/md4.o
 .debug_info    0x00054574      0x8fb ./lwip/src/netif/ppp/polarssl/md5.o
 .debug_info    0x00054e6f      0x8fb ./lwip/src/netif/ppp/polarssl/sha1.o
 .debug_info    0x0005576a     0x138a ./lwip/system/OS/sys_arch.o

.debug_abbrev   0x00000000     0xbbd1
 .debug_abbrev  0x00000000      0x23f ./main.o
 .debug_abbrev  0x0000023f       0xca ./tm4c1294ncpdt_startup_ccs_gcc.o
 .debug_abbrev  0x00000309       0x8c ./Drivers/pinout.o
 .debug_abbrev  0x00000395      0x38f ./FreeRTOS/CMSIS_RTOS/cmsis_os.o
 .debug_abbrev  0x00000724       0x26 ./FreeRTOS/croutine.o
 .debug_abbrev  0x0000074a      0x319 ./FreeRTOS/event_groups.o
 .debug_abbrev  0x00000a63      0x217 ./FreeRTOS/list.o
 .debug_abbrev  0x00000c7a      0x310 ./FreeRTOS/queue.o
 .debug_abbrev  0x00000f8a      0x33e ./FreeRTOS/stream_buffer.o
 .debug_abbrev  0x000012c8      0x36d ./FreeRTOS/tasks.o
 .debug_abbrev  0x00001635      0x2d1 ./FreeRTOS/timers.o
 .debug_abbrev  0x00001906      0x205 ./FreeRTOS/portable/GCC/ARM_CM4F/port.o
 .debug_abbrev  0x00001b0b      0x2de ./FreeRTOS/portable/MemMang/heap_4.o
 .debug_abbrev  0x00001de9      0x26c ./lwip/apps/httpserver_raw/fs.o
 .debug_abbrev  0x00002055      0x2fe ./lwip/apps/httpserver_raw/httpd.o
 .debug_abbrev  0x00002353      0x27e ./lwip/lwiplib.o
 .debug_abbrev  0x000025d1      0x2d0 ./lwip/port/tiva-tm4c129.o
 .debug_abbrev  0x000028a1      0x353 ./lwip/src/api/api_lib.o
 .debug_abbrev  0x00002bf4      0x37a ./lwip/src/api/api_msg.o
 .debug_abbrev  0x00002f6e      0x1c9 ./lwip/src/api/err.o
 .debug_abbrev  0x00003137      0x1f1 ./lwip/src/api/if_api.o
 .debug_abbrev  0x00003328      0x237 ./lwip/src/api/netbuf.o
 .debug_abbrev  0x0000355f      0x2da ./lwip/src/api/netdb.o
 .debug_abbrev  0x00003839      0x190 ./lwip/src/api/netifapi.o
 .debug_abbrev  0x000039c9      0x362 ./lwip/src/api/sockets.o
 .debug_abbrev  0x00003d2b      0x2f6 ./lwip/src/api/tcpip.o
 .debug_abbrev  0x00004021      0x190 ./lwip/src/core/altcp.o
 .debug_abbrev  0x000041b1      0x190 ./lwip/src/core/altcp_alloc.o
 .debug_abbrev  0x00004341      0x190 ./lwip/src/core/altcp_tcp.o
 .debug_abbrev  0x000044d1      0x236 ./lwip/src/core/def.o
 .debug_abbrev  0x00004707      0x307 ./lwip/src/core/dns.o
 .debug_abbrev  0x00004a0e      0x278 ./lwip/src/core/inet_chksum.o
 .debug_abbrev  0x00004c86      0x1ee ./lwip/src/core/init.o
 .debug_abbrev  0x00004e74      0x1d5 ./lwip/src/core/ip.o
 .debug_abbrev  0x00005049      0x2c4 ./lwip/src/core/mem.o
 .debug_abbrev  0x0000530d      0x30f ./lwip/src/core/memp.o
 .debug_abbrev  0x0000561c      0x33d ./lwip/src/core/netif.o
 .debug_abbrev  0x00005959      0x330 ./lwip/src/core/pbuf.o
 .debug_abbrev  0x00005c89      0x190 ./lwip/src/core/raw.o
 .debug_abbrev  0x00005e19      0x190 ./lwip/src/core/stats.o
 .debug_abbrev  0x00005fa9      0x1fe ./lwip/src/core/sys.o
 .debug_abbrev  0x000061a7      0x397 ./lwip/src/core/tcp.o
 .debug_abbrev  0x0000653e      0x319 ./lwip/src/core/tcp_in.o
 .debug_abbrev  0x00006857      0x366 ./lwip/src/core/tcp_out.o
 .debug_abbrev  0x00006bbd      0x2e5 ./lwip/src/core/timeouts.o
 .debug_abbrev  0x00006ea2      0x34f ./lwip/src/core/udp.o
 .debug_abbrev  0x000071f1      0x190 ./lwip/src/core/ipv4/autoip.o
 .debug_abbrev  0x00007381      0x33c ./lwip/src/core/ipv4/dhcp.o
 .debug_abbrev  0x000076bd      0x302 ./lwip/src/core/ipv4/etharp.o
 .debug_abbrev  0x000079bf      0x2d2 ./lwip/src/core/ipv4/icmp.o
 .debug_abbrev  0x00007c91      0x190 ./lwip/src/core/ipv4/igmp.o
 .debug_abbrev  0x00007e21      0x2d8 ./lwip/src/core/ipv4/ip4.o
 .debug_abbrev  0x000080f9      0x2db ./lwip/src/core/ipv4/ip4_addr.o
 .debug_abbrev  0x000083d4      0x32b ./lwip/src/core/ipv4/ip4_frag.o
 .debug_abbrev  0x000086ff      0x2ba ./lwip/src/netif/ethernet.o
 .debug_abbrev  0x000089b9      0x190 ./lwip/src/netif/ppp/auth.o
 .debug_abbrev  0x00008b49      0x190 ./lwip/src/netif/ppp/ccp.o
 .debug_abbrev  0x00008cd9      0x190 ./lwip/src/netif/ppp/chap-md5.o
 .debug_abbrev  0x00008e69      0x190 ./lwip/src/netif/ppp/chap-new.o
 .debug_abbrev  0x00008ff9      0x190 ./lwip/src/netif/ppp/chap_ms.o
 .debug_abbrev  0x00009189      0x190 ./lwip/src/netif/ppp/demand.o
 .debug_abbrev  0x00009319      0x190 ./lwip/src/netif/ppp/eap.o
 .debug_abbrev  0x000094a9      0x190 ./lwip/src/netif/ppp/ecp.o
 .debug_abbrev  0x00009639      0x190 ./lwip/src/netif/ppp/eui64.o
 .debug_abbrev  0x000097c9      0x190 ./lwip/src/netif/ppp/fsm.o
 .debug_abbrev  0x00009959      0x190 ./lwip/src/netif/ppp/ipcp.o
 .debug_abbrev  0x00009ae9      0x190 ./lwip/src/netif/ppp/ipv6cp.o
 .debug_abbrev  0x00009c79      0x190 ./lwip/src/netif/ppp/lcp.o
 .debug_abbrev  0x00009e09      0x190 ./lwip/src/netif/ppp/magic.o
 .debug_abbrev  0x00009f99      0x190 ./lwip/src/netif/ppp/mppe.o
 .debug_abbrev  0x0000a129      0x190 ./lwip/src/netif/ppp/multilink.o
 .debug_abbrev  0x0000a2b9      0x190 ./lwip/src/netif/ppp/ppp.o
 .debug_abbrev  0x0000a449      0x190 ./lwip/src/netif/ppp/pppapi.o
 .debug_abbrev  0x0000a5d9      0x190 ./lwip/src/netif/ppp/pppcrypt.o
 .debug_abbrev  0x0000a769      0x190 ./lwip/src/netif/ppp/pppoe.o
 .debug_abbrev  0x0000a8f9      0x190 ./lwip/src/netif/ppp/pppol2tp.o
 .debug_abbrev  0x0000aa89      0x190 ./lwip/src/netif/ppp/pppos.o
 .debug_abbrev  0x0000ac19      0x190 ./lwip/src/netif/ppp/upap.o
 .debug_abbrev  0x0000ada9      0x190 ./lwip/src/netif/ppp/utils.o
 .debug_abbrev  0x0000af39      0x190 ./lwip/src/netif/ppp/vj.o
 .debug_abbrev  0x0000b0c9      0x190 ./lwip/src/netif/ppp/polarssl/arc4.o
 .debug_abbrev  0x0000b259      0x190 ./lwip/src/netif/ppp/polarssl/des.o
 .debug_abbrev  0x0000b3e9      0x190 ./lwip/src/netif/ppp/polarssl/md4.o
 .debug_abbrev  0x0000b579      0x190 ./lwip/src/netif/ppp/polarssl/md5.o
 .debug_abbrev  0x0000b709      0x190 ./lwip/src/netif/ppp/polarssl/sha1.o
 .debug_abbrev  0x0000b899      0x338 ./lwip/system/OS/sys_arch.o

.debug_loc      0x00000000    0x18bcf
 .debug_loc     0x00000000       0x93 ./main.o
 .debug_loc     0x00000093       0x26 ./tm4c1294ncpdt_startup_ccs_gcc.o
 .debug_loc     0x000000b9       0xac ./Drivers/pinout.o
 .debug_loc     0x00000165      0xb6c ./FreeRTOS/CMSIS_RTOS/cmsis_os.o
 .debug_loc     0x00000cd1      0x49d ./FreeRTOS/event_groups.o
 .debug_loc     0x0000116e       0x62 ./FreeRTOS/list.o
 .debug_loc     0x000011d0      0xd41 ./FreeRTOS/queue.o
 .debug_loc     0x00001f11      0xdf1 ./FreeRTOS/stream_buffer.o
 .debug_loc     0x00002d02     0x11bb ./FreeRTOS/tasks.o
 .debug_loc     0x00003ebd      0x726 ./FreeRTOS/timers.o
 .debug_loc     0x000045e3       0x57 ./FreeRTOS/portable/GCC/ARM_CM4F/port.o
 .debug_loc     0x0000463a      0x289 ./FreeRTOS/portable/MemMang/heap_4.o
 .debug_loc     0x000048c3       0x8e ./lwip/apps/httpserver_raw/fs.o
 .debug_loc     0x00004951     0x1651 ./lwip/apps/httpserver_raw/httpd.o
 .debug_loc     0x00005fa2      0x26a ./lwip/lwiplib.o
 .debug_loc     0x0000620c      0x3d2 ./lwip/port/tiva-tm4c129.o
 .debug_loc     0x000065de      0xe37 ./lwip/src/api/api_lib.o
 .debug_loc     0x00007415     0x12b8 ./lwip/src/api/api_msg.o
 .debug_loc     0x000086cd       0x13 ./lwip/src/api/err.o
 .debug_loc     0x000086e0       0x26 ./lwip/src/api/if_api.o
 .debug_loc     0x00008706      0x2e0 ./lwip/src/api/netbuf.o
 .debug_loc     0x000089e6      0x494 ./lwip/src/api/netdb.o
 .debug_loc     0x00008e7a     0x3727 ./lwip/src/api/sockets.o
 .debug_loc     0x0000c5a1      0x4bc ./lwip/src/api/tcpip.o
 .debug_loc     0x0000ca5d      0x43d ./lwip/src/core/def.o
 .debug_loc     0x0000ce9a      0xb0e ./lwip/src/core/dns.o
 .debug_loc     0x0000d9a8      0x4c6 ./lwip/src/core/inet_chksum.o
 .debug_loc     0x0000de6e      0x4fd ./lwip/src/core/mem.o
 .debug_loc     0x0000e36b      0x23b ./lwip/src/core/memp.o
 .debug_loc     0x0000e5a6      0x865 ./lwip/src/core/netif.o
 .debug_loc     0x0000ee0b     0x149c ./lwip/src/core/pbuf.o
 .debug_loc     0x000102a7       0x3c ./lwip/src/core/sys.o
 .debug_loc     0x000102e3     0x193a ./lwip/src/core/tcp.o
 .debug_loc     0x00011c1d      0x6b6 ./lwip/src/core/tcp_in.o
 .debug_loc     0x000122d3     0x17d9 ./lwip/src/core/tcp_out.o
 .debug_loc     0x00013aac      0x349 ./lwip/src/core/timeouts.o
 .debug_loc     0x00013df5      0xbeb ./lwip/src/core/udp.o
 .debug_loc     0x000149e0     0x185a ./lwip/src/core/ipv4/dhcp.o
 .debug_loc     0x0001623a      0xdd1 ./lwip/src/core/ipv4/etharp.o
 .debug_loc     0x0001700b      0x297 ./lwip/src/core/ipv4/icmp.o
 .debug_loc     0x000172a2      0x3fc ./lwip/src/core/ipv4/ip4.o
 .debug_loc     0x0001769e      0x355 ./lwip/src/core/ipv4/ip4_addr.o
 .debug_loc     0x000179f3      0xd3b ./lwip/src/core/ipv4/ip4_frag.o
 .debug_loc     0x0001872e      0x11b ./lwip/src/netif/ethernet.o
 .debug_loc     0x00018849      0x386 ./lwip/system/OS/sys_arch.o

.debug_aranges  0x00000000     0x2000
 .debug_aranges
                0x00000000       0x48 ./main.o
 .debug_aranges
                0x00000048       0x38 ./tm4c1294ncpdt_startup_ccs_gcc.o
 .debug_aranges
                0x00000080       0x30 ./Drivers/pinout.o
 .debug_aranges
                0x000000b0      0x1d8 ./FreeRTOS/CMSIS_RTOS/cmsis_os.o
 .debug_aranges
                0x00000288       0x18 ./FreeRTOS/croutine.o
 .debug_aranges
                0x000002a0       0x68 ./FreeRTOS/event_groups.o
 .debug_aranges
                0x00000308       0x40 ./FreeRTOS/list.o
 .debug_aranges
                0x00000348      0x118 ./FreeRTOS/queue.o
 .debug_aranges
                0x00000460       0xc0 ./FreeRTOS/stream_buffer.o
 .debug_aranges
                0x00000520      0x1c0 ./FreeRTOS/tasks.o
 .debug_aranges
                0x000006e0       0xc8 ./FreeRTOS/timers.o
 .debug_aranges
                0x000007a8       0x80 ./FreeRTOS/portable/GCC/ARM_CM4F/port.o
 .debug_aranges
                0x00000828       0x58 ./FreeRTOS/portable/MemMang/heap_4.o
 .debug_aranges
                0x00000880       0x30 ./lwip/apps/httpserver_raw/fs.o
 .debug_aranges
                0x000008b0      0x120 ./lwip/apps/httpserver_raw/httpd.o
 .debug_aranges
                0x000009d0       0x88 ./lwip/lwiplib.o
 .debug_aranges
                0x00000a58       0x60 ./lwip/port/tiva-tm4c129.o
 .debug_aranges
                0x00000ab8      0x100 ./lwip/src/api/api_lib.o
 .debug_aranges
                0x00000bb8      0x108 ./lwip/src/api/api_msg.o
 .debug_aranges
                0x00000cc0       0x20 ./lwip/src/api/err.o
 .debug_aranges
                0x00000ce0       0x28 ./lwip/src/api/if_api.o
 .debug_aranges
                0x00000d08       0x60 ./lwip/src/api/netbuf.o
 .debug_aranges
                0x00000d68       0x38 ./lwip/src/api/netdb.o
 .debug_aranges
                0x00000da0       0x18 ./lwip/src/api/netifapi.o
 .debug_aranges
                0x00000db8      0x1c8 ./lwip/src/api/sockets.o
 .debug_aranges
                0x00000f80       0xa0 ./lwip/src/api/tcpip.o
 .debug_aranges
                0x00001020       0x18 ./lwip/src/core/altcp.o
 .debug_aranges
                0x00001038       0x18 ./lwip/src/core/altcp_alloc.o
 .debug_aranges
                0x00001050       0x18 ./lwip/src/core/altcp_tcp.o
 .debug_aranges
                0x00001068       0x48 ./lwip/src/core/def.o
 .debug_aranges
                0x000010b0       0xb8 ./lwip/src/core/dns.o
 .debug_aranges
                0x00001168       0x60 ./lwip/src/core/inet_chksum.o
 .debug_aranges
                0x000011c8       0x20 ./lwip/src/core/init.o
 .debug_aranges
                0x000011e8       0x18 ./lwip/src/core/ip.o
 .debug_aranges
                0x00001200       0x60 ./lwip/src/core/mem.o
 .debug_aranges
                0x00001260       0x58 ./lwip/src/core/memp.o
 .debug_aranges
                0x000012b8       0xe0 ./lwip/src/core/netif.o
 .debug_aranges
                0x00001398      0x128 ./lwip/src/core/pbuf.o
 .debug_aranges
                0x000014c0       0x18 ./lwip/src/core/raw.o
 .debug_aranges
                0x000014d8       0x18 ./lwip/src/core/stats.o
 .debug_aranges
                0x000014f0       0x20 ./lwip/src/core/sys.o
 .debug_aranges
                0x00001510      0x1a8 ./lwip/src/core/tcp.o
 .debug_aranges
                0x000016b8       0x68 ./lwip/src/core/tcp_in.o
 .debug_aranges
                0x00001720       0xd8 ./lwip/src/core/tcp_out.o
 .debug_aranges
                0x000017f8       0x68 ./lwip/src/core/timeouts.o
 .debug_aranges
                0x00001860       0xa0 ./lwip/src/core/udp.o
 .debug_aranges
                0x00001900       0x18 ./lwip/src/core/ipv4/autoip.o
 .debug_aranges
                0x00001918      0x140 ./lwip/src/core/ipv4/dhcp.o
 .debug_aranges
                0x00001a58       0x88 ./lwip/src/core/ipv4/etharp.o
 .debug_aranges
                0x00001ae0       0x38 ./lwip/src/core/ipv4/icmp.o
 .debug_aranges
                0x00001b18       0x18 ./lwip/src/core/ipv4/igmp.o
 .debug_aranges
                0x00001b30       0x48 ./lwip/src/core/ipv4/ip4.o
 .debug_aranges
                0x00001b78       0x48 ./lwip/src/core/ipv4/ip4_addr.o
 .debug_aranges
                0x00001bc0       0x70 ./lwip/src/core/ipv4/ip4_frag.o
 .debug_aranges
                0x00001c30       0x28 ./lwip/src/netif/ethernet.o
 .debug_aranges
                0x00001c58       0x18 ./lwip/src/netif/ppp/auth.o
 .debug_aranges
                0x00001c70       0x18 ./lwip/src/netif/ppp/ccp.o
 .debug_aranges
                0x00001c88       0x18 ./lwip/src/netif/ppp/chap-md5.o
 .debug_aranges
                0x00001ca0       0x18 ./lwip/src/netif/ppp/chap-new.o
 .debug_aranges
                0x00001cb8       0x18 ./lwip/src/netif/ppp/chap_ms.o
 .debug_aranges
                0x00001cd0       0x18 ./lwip/src/netif/ppp/demand.o
 .debug_aranges
                0x00001ce8       0x18 ./lwip/src/netif/ppp/eap.o
 .debug_aranges
                0x00001d00       0x18 ./lwip/src/netif/ppp/ecp.o
 .debug_aranges
                0x00001d18       0x18 ./lwip/src/netif/ppp/eui64.o
 .debug_aranges
                0x00001d30       0x18 ./lwip/src/netif/ppp/fsm.o
 .debug_aranges
                0x00001d48       0x18 ./lwip/src/netif/ppp/ipcp.o
 .debug_aranges
                0x00001d60       0x18 ./lwip/src/netif/ppp/ipv6cp.o
 .debug_aranges
                0x00001d78       0x18 ./lwip/src/netif/ppp/lcp.o
 .debug_aranges
                0x00001d90       0x18 ./lwip/src/netif/ppp/magic.o
 .debug_aranges
                0x00001da8       0x18 ./lwip/src/netif/ppp/mppe.o
 .debug_aranges
                0x00001dc0       0x18 ./lwip/src/netif/ppp/multilink.o
 .debug_aranges
                0x00001dd8       0x18 ./lwip/src/netif/ppp/ppp.o
 .debug_aranges
                0x00001df0       0x18 ./lwip/src/netif/ppp/pppapi.o
 .debug_aranges
                0x00001e08       0x18 ./lwip/src/netif/ppp/pppcrypt.o
 .debug_aranges
                0x00001e20       0x18 ./lwip/src/netif/ppp/pppoe.o
 .debug_aranges
                0x00001e38       0x18 ./lwip/src/netif/ppp/pppol2tp.o
 .debug_aranges
                0x00001e50       0x18 ./lwip/src/netif/ppp/pppos.o
 .debug_aranges
                0x00001e68       0x18 ./lwip/src/netif/ppp/upap.o
 .debug_aranges
                0x00001e80       0x18 ./lwip/src/netif/ppp/utils.o
 .debug_aranges
                0x00001e98       0x18 ./lwip/src/netif/ppp/vj.o
 .debug_aranges
                0x00001eb0       0x18 ./lwip/src/netif/ppp/polarssl/arc4.o
 .debug_aranges
                0x00001ec8       0x18 ./lwip/src/netif/ppp/polarssl/des.o
 .debug_aranges
                0x00001ee0       0x18 ./lwip/src/netif/ppp/polarssl/md4.o
 .debug_aranges
                0x00001ef8       0x18 ./lwip/src/netif/ppp/polarssl/md5.o
 .debug_aranges
                0x00001f10       0x18 ./lwip/src/netif/ppp/polarssl/sha1.o
 .debug_aranges
                0x00001f28       0xd8 ./lwip/system/OS/sys_arch.o

.debug_ranges   0x00000000     0x25d8
 .debug_ranges  0x00000000       0x38 ./main.o
 .debug_ranges  0x00000038       0x28 ./tm4c1294ncpdt_startup_ccs_gcc.o
 .debug_ranges  0x00000060       0x20 ./Drivers/pinout.o
 .debug_ranges  0x00000080      0x1c8 ./FreeRTOS/CMSIS_RTOS/cmsis_os.o
 .debug_ranges  0x00000248       0x78 ./FreeRTOS/event_groups.o
 .debug_ranges  0x000002c0       0x30 ./FreeRTOS/list.o
 .debug_ranges  0x000002f0      0x1d0 ./FreeRTOS/queue.o
 .debug_ranges  0x000004c0       0xb0 ./FreeRTOS/stream_buffer.o
 .debug_ranges  0x00000570      0x270 ./FreeRTOS/tasks.o
 .debug_ranges  0x000007e0       0xb8 ./FreeRTOS/timers.o
 .debug_ranges  0x00000898       0x70 ./FreeRTOS/portable/GCC/ARM_CM4F/port.o
 .debug_ranges  0x00000908       0x48 ./FreeRTOS/portable/MemMang/heap_4.o
 .debug_ranges  0x00000950       0x20 ./lwip/apps/httpserver_raw/fs.o
 .debug_ranges  0x00000970      0x1d0 ./lwip/apps/httpserver_raw/httpd.o
 .debug_ranges  0x00000b40       0x78 ./lwip/lwiplib.o
 .debug_ranges  0x00000bb8       0x50 ./lwip/port/tiva-tm4c129.o
 .debug_ranges  0x00000c08      0x150 ./lwip/src/api/api_lib.o
 .debug_ranges  0x00000d58      0x1d8 ./lwip/src/api/api_msg.o
 .debug_ranges  0x00000f30       0x10 ./lwip/src/api/err.o
 .debug_ranges  0x00000f40       0x18 ./lwip/src/api/if_api.o
 .debug_ranges  0x00000f58       0x50 ./lwip/src/api/netbuf.o
 .debug_ranges  0x00000fa8       0x28 ./lwip/src/api/netdb.o
 .debug_ranges  0x00000fd0      0x400 ./lwip/src/api/sockets.o
 .debug_ranges  0x000013d0       0x90 ./lwip/src/api/tcpip.o
 .debug_ranges  0x00001460       0x68 ./lwip/src/core/def.o
 .debug_ranges  0x000014c8       0xf0 ./lwip/src/core/dns.o
 .debug_ranges  0x000015b8       0x50 ./lwip/src/core/inet_chksum.o
 .debug_ranges  0x00001608       0x10 ./lwip/src/core/init.o
 .debug_ranges  0x00001618       0x68 ./lwip/src/core/mem.o
 .debug_ranges  0x00001680       0x48 ./lwip/src/core/memp.o
 .debug_ranges  0x000016c8      0x100 ./lwip/src/core/netif.o
 .debug_ranges  0x000017c8      0x1c8 ./lwip/src/core/pbuf.o
 .debug_ranges  0x00001990       0x28 ./lwip/src/core/sys.o
 .debug_ranges  0x000019b8      0x330 ./lwip/src/core/tcp.o
 .debug_ranges  0x00001ce8       0xe8 ./lwip/src/core/tcp_in.o
 .debug_ranges  0x00001dd0      0x1d0 ./lwip/src/core/tcp_out.o
 .debug_ranges  0x00001fa0       0x58 ./lwip/src/core/timeouts.o
 .debug_ranges  0x00001ff8       0x90 ./lwip/src/core/udp.o
 .debug_ranges  0x00002088      0x1f8 ./lwip/src/core/ipv4/dhcp.o
 .debug_ranges  0x00002280       0xf0 ./lwip/src/core/ipv4/etharp.o
 .debug_ranges  0x00002370       0x40 ./lwip/src/core/ipv4/icmp.o
 .debug_ranges  0x000023b0       0x58 ./lwip/src/core/ipv4/ip4.o
 .debug_ranges  0x00002408       0x38 ./lwip/src/core/ipv4/ip4_addr.o
 .debug_ranges  0x00002440       0xb8 ./lwip/src/core/ipv4/ip4_frag.o
 .debug_ranges  0x000024f8       0x18 ./lwip/src/netif/ethernet.o
 .debug_ranges  0x00002510       0xc8 ./lwip/system/OS/sys_arch.o

.debug_line     0x00000000    0x159d2
 .debug_line    0x00000000      0x546 ./main.o
 .debug_line    0x00000546      0x17a ./tm4c1294ncpdt_startup_ccs_gcc.o
 .debug_line    0x000006c0      0x19e ./Drivers/pinout.o
 .debug_line    0x0000085e      0x8bb ./FreeRTOS/CMSIS_RTOS/cmsis_os.o
 .debug_line    0x00001119       0x1d ./FreeRTOS/croutine.o
 .debug_line    0x00001136      0x4a7 ./FreeRTOS/event_groups.o
 .debug_line    0x000015dd      0x331 ./FreeRTOS/list.o
 .debug_line    0x0000190e      0x96f ./FreeRTOS/queue.o
 .debug_line    0x0000227d      0x682 ./FreeRTOS/stream_buffer.o
 .debug_line    0x000028ff      0xc6f ./FreeRTOS/tasks.o
 .debug_line    0x0000356e      0x5c1 ./FreeRTOS/timers.o
 .debug_line    0x00003b2f      0x367 ./FreeRTOS/portable/GCC/ARM_CM4F/port.o
 .debug_line    0x00003e96      0x40c ./FreeRTOS/portable/MemMang/heap_4.o
 .debug_line    0x000042a2      0x32e ./lwip/apps/httpserver_raw/fs.o
 .debug_line    0x000045d0      0xa2d ./lwip/apps/httpserver_raw/httpd.o
 .debug_line    0x00004ffd      0x686 ./lwip/lwiplib.o
 .debug_line    0x00005683      0x68f ./lwip/port/tiva-tm4c129.o
 .debug_line    0x00005d12      0x865 ./lwip/src/api/api_lib.o
 .debug_line    0x00006577      0xaad ./lwip/src/api/api_msg.o
 .debug_line    0x00007024      0x2a6 ./lwip/src/api/err.o
 .debug_line    0x000072ca      0x346 ./lwip/src/api/if_api.o
 .debug_line    0x00007610      0x3f2 ./lwip/src/api/netbuf.o
 .debug_line    0x00007a02      0x441 ./lwip/src/api/netdb.o
 .debug_line    0x00007e43      0x19a ./lwip/src/api/netifapi.o
 .debug_line    0x00007fdd     0x1094 ./lwip/src/api/sockets.o
 .debug_line    0x00009071      0x643 ./lwip/src/api/tcpip.o
 .debug_line    0x000096b4      0x19a ./lwip/src/core/altcp.o
 .debug_line    0x0000984e      0x19a ./lwip/src/core/altcp_alloc.o
 .debug_line    0x000099e8      0x19a ./lwip/src/core/altcp_tcp.o
 .debug_line    0x00009b82      0x341 ./lwip/src/core/def.o
 .debug_line    0x00009ec3      0x6bf ./lwip/src/core/dns.o
 .debug_line    0x0000a582      0x3ae ./lwip/src/core/inet_chksum.o
 .debug_line    0x0000a930      0x3d5 ./lwip/src/core/init.o
 .debug_line    0x0000ad05      0x354 ./lwip/src/core/ip.o
 .debug_line    0x0000b059      0x570 ./lwip/src/core/mem.o
 .debug_line    0x0000b5c9      0x584 ./lwip/src/core/memp.o
 .debug_line    0x0000bb4d      0x6ce ./lwip/src/core/netif.o
 .debug_line    0x0000c21b      0x7a7 ./lwip/src/core/pbuf.o
 .debug_line    0x0000c9c2      0x19a ./lwip/src/core/raw.o
 .debug_line    0x0000cb5c      0x19a ./lwip/src/core/stats.o
 .debug_line    0x0000ccf6      0x366 ./lwip/src/core/sys.o
 .debug_line    0x0000d05c      0xb35 ./lwip/src/core/tcp.o
 .debug_line    0x0000db91      0x874 ./lwip/src/core/tcp_in.o
 .debug_line    0x0000e405      0x908 ./lwip/src/core/tcp_out.o
 .debug_line    0x0000ed0d      0x59a ./lwip/src/core/timeouts.o
 .debug_line    0x0000f2a7      0x640 ./lwip/src/core/udp.o
 .debug_line    0x0000f8e7      0x19a ./lwip/src/core/ipv4/autoip.o
 .debug_line    0x0000fa81      0x9cf ./lwip/src/core/ipv4/dhcp.o
 .debug_line    0x00010450      0x6a9 ./lwip/src/core/ipv4/etharp.o
 .debug_line    0x00010af9      0x423 ./lwip/src/core/ipv4/icmp.o
 .debug_line    0x00010f1c      0x19a ./lwip/src/core/ipv4/igmp.o
 .debug_line    0x000110b6      0x520 ./lwip/src/core/ipv4/ip4.o
 .debug_line    0x000115d6      0x41d ./lwip/src/core/ipv4/ip4_addr.o
 .debug_line    0x000119f3      0x60e ./lwip/src/core/ipv4/ip4_frag.o
 .debug_line    0x00012001      0x413 ./lwip/src/netif/ethernet.o
 .debug_line    0x00012414      0x19a ./lwip/src/netif/ppp/auth.o
 .debug_line    0x000125ae      0x19a ./lwip/src/netif/ppp/ccp.o
 .debug_line    0x00012748      0x19a ./lwip/src/netif/ppp/chap-md5.o
 .debug_line    0x000128e2      0x19a ./lwip/src/netif/ppp/chap-new.o
 .debug_line    0x00012a7c      0x19a ./lwip/src/netif/ppp/chap_ms.o
 .debug_line    0x00012c16      0x19a ./lwip/src/netif/ppp/demand.o
 .debug_line    0x00012db0      0x19a ./lwip/src/netif/ppp/eap.o
 .debug_line    0x00012f4a      0x19a ./lwip/src/netif/ppp/ecp.o
 .debug_line    0x000130e4      0x19a ./lwip/src/netif/ppp/eui64.o
 .debug_line    0x0001327e      0x19a ./lwip/src/netif/ppp/fsm.o
 .debug_line    0x00013418      0x19a ./lwip/src/netif/ppp/ipcp.o
 .debug_line    0x000135b2      0x19a ./lwip/src/netif/ppp/ipv6cp.o
 .debug_line    0x0001374c      0x19a ./lwip/src/netif/ppp/lcp.o
 .debug_line    0x000138e6      0x19a ./lwip/src/netif/ppp/magic.o
 .debug_line    0x00013a80      0x19a ./lwip/src/netif/ppp/mppe.o
 .debug_line    0x00013c1a      0x19a ./lwip/src/netif/ppp/multilink.o
 .debug_line    0x00013db4      0x19a ./lwip/src/netif/ppp/ppp.o
 .debug_line    0x00013f4e      0x19a ./lwip/src/netif/ppp/pppapi.o
 .debug_line    0x000140e8      0x19a ./lwip/src/netif/ppp/pppcrypt.o
 .debug_line    0x00014282      0x19a ./lwip/src/netif/ppp/pppoe.o
 .debug_line    0x0001441c      0x19a ./lwip/src/netif/ppp/pppol2tp.o
 .debug_line    0x000145b6      0x19a ./lwip/src/netif/ppp/pppos.o
 .debug_line    0x00014750      0x19a ./lwip/src/netif/ppp/upap.o
 .debug_line    0x000148ea      0x19a ./lwip/src/netif/ppp/utils.o
 .debug_line    0x00014a84      0x19a ./lwip/src/netif/ppp/vj.o
 .debug_line    0x00014c1e      0x19a ./lwip/src/netif/ppp/polarssl/arc4.o
 .debug_line    0x00014db8      0x19a ./lwip/src/netif/ppp/polarssl/des.o
 .debug_line    0x00014f52      0x19a ./lwip/src/netif/ppp/polarssl/md4.o
 .debug_line    0x000150ec      0x19a ./lwip/src/netif/ppp/polarssl/md5.o
 .debug_line    0x00015286      0x19a ./lwip/src/netif/ppp/polarssl/sha1.o
 .debug_line    0x00015420      0x5b2 ./lwip/system/OS/sys_arch.o

.debug_str      0x00000000     0x8f26
 .debug_str     0x00000000      0xa41 ./main.o
                                0xbc6 (size before relaxing)
 .debug_str     0x00000a41       0xbc ./tm4c1294ncpdt_startup_ccs_gcc.o
                                0x252 (size before relaxing)
 .debug_str     0x00000afd       0x5e ./Drivers/pinout.o
                                0x201 (size before relaxing)
 .debug_str     0x00000b5b      0x86a ./FreeRTOS/CMSIS_RTOS/cmsis_os.o
                                0xf51 (size before relaxing)
 .debug_str     0x000013c5       0x17 ./FreeRTOS/croutine.o
                                0x1aa (size before relaxing)
 .debug_str     0x000013dc      0x327 ./FreeRTOS/event_groups.o
                                0x95d (size before relaxing)
 .debug_str     0x00001703       0xa0 ./FreeRTOS/list.o
                                0x6df (size before relaxing)
 .debug_str     0x000017a3      0x5d2 ./FreeRTOS/queue.o
                                0xd43 (size before relaxing)
 .debug_str     0x00001d75      0x42b ./FreeRTOS/stream_buffer.o
                                0xb65 (size before relaxing)
 .debug_str     0x000021a0      0xa7c ./FreeRTOS/tasks.o
                               0x129e (size before relaxing)
 .debug_str     0x00002c1c      0x405 ./FreeRTOS/timers.o
                                0xb67 (size before relaxing)
 .debug_str     0x00003021      0x1fd ./FreeRTOS/portable/GCC/ARM_CM4F/port.o
                                0x44b (size before relaxing)
 .debug_str     0x0000321e      0x2ba ./FreeRTOS/portable/MemMang/heap_4.o
                                0x8a9 (size before relaxing)
 .debug_str     0x000034d8      0x1c1 ./lwip/apps/httpserver_raw/fs.o
                                0x7b0 (size before relaxing)
 .debug_str     0x00003699      0x92b ./lwip/apps/httpserver_raw/httpd.o
                               0x13f0 (size before relaxing)
 .debug_str     0x00003fc4      0x22a ./lwip/lwiplib.o
                                0xd66 (size before relaxing)
 .debug_str     0x000041ee      0x41f ./lwip/port/tiva-tm4c129.o
                                0xe79 (size before relaxing)
 .debug_str     0x0000460d      0x59a ./lwip/src/api/api_lib.o
                               0x13f9 (size before relaxing)
 .debug_str     0x00004ba7      0x38f ./lwip/src/api/api_msg.o
                               0x14a3 (size before relaxing)
 .debug_str     0x00004f36       0x36 ./lwip/src/api/err.o
                                0x5f4 (size before relaxing)
 .debug_str     0x00004f6c       0x50 ./lwip/src/api/if_api.o
                                0x7ec (size before relaxing)
 .debug_str     0x00004fbc       0x9b ./lwip/src/api/netbuf.o
                                0x921 (size before relaxing)
 .debug_str     0x00005057      0x249 ./lwip/src/api/netdb.o
                                0xc45 (size before relaxing)
 .debug_str     0x000052a0       0x1b ./lwip/src/api/netifapi.o
                                0x5b8 (size before relaxing)
 .debug_str     0x000052bb      0x78a ./lwip/src/api/sockets.o
                               0x1a19 (size before relaxing)
 .debug_str     0x00005a45      0x239 ./lwip/src/api/tcpip.o
                                0xe4a (size before relaxing)
 .debug_str     0x00005c7e       0x19 ./lwip/src/core/altcp.o
                                0x5b6 (size before relaxing)
 .debug_str     0x00005c97       0x1f ./lwip/src/core/altcp_alloc.o
                                0x5bc (size before relaxing)
 .debug_str     0x00005cb6       0x1d ./lwip/src/core/altcp_tcp.o
                                0x5ba (size before relaxing)
 .debug_str     0x00005cd3       0x8e ./lwip/src/core/def.o
                                0x685 (size before relaxing)
 .debug_str     0x00005d61      0x32b ./lwip/src/core/dns.o
                                0xeea (size before relaxing)
 .debug_str     0x0000608c      0x103 ./lwip/src/core/inet_chksum.o
                                0x794 (size before relaxing)
 .debug_str     0x0000618f       0x22 ./lwip/src/core/init.o
                                0xcf4 (size before relaxing)
 .debug_str     0x000061b1       0x16 ./lwip/src/core/ip.o
                                0x99b (size before relaxing)
 .debug_str     0x000061c7       0xf4 ./lwip/src/core/mem.o
                                0x8f1 (size before relaxing)
 .debug_str     0x000062bb      0x3c1 ./lwip/src/core/memp.o
                               0x128b (size before relaxing)
 .debug_str     0x0000667c      0x225 ./lwip/src/core/netif.o
                               0x1058 (size before relaxing)
 .debug_str     0x000068a1      0x3b0 ./lwip/src/core/pbuf.o
                                0xdd7 (size before relaxing)
 .debug_str     0x00006c51       0x17 ./lwip/src/core/raw.o
                                0x5b4 (size before relaxing)
 .debug_str     0x00006c68       0x19 ./lwip/src/core/stats.o
                                0x5b6 (size before relaxing)
 .debug_str     0x00006c81       0x2b ./lwip/src/core/sys.o
                                0x6e7 (size before relaxing)
 .debug_str     0x00006cac      0x489 ./lwip/src/core/tcp.o
                               0x1322 (size before relaxing)
 .debug_str     0x00007135      0x1c7 ./lwip/src/core/tcp_in.o
                               0x1013 (size before relaxing)
 .debug_str     0x000072fc      0x2d2 ./lwip/src/core/tcp_out.o
                               0x1149 (size before relaxing)
 .debug_str     0x000075ce      0x14d ./lwip/src/core/timeouts.o
                                0xfa2 (size before relaxing)
 .debug_str     0x0000771b      0x1a4 ./lwip/src/core/udp.o
                                0xcfc (size before relaxing)
 .debug_str     0x000078bf       0x1f ./lwip/src/core/ipv4/autoip.o
                                0x5bc (size before relaxing)
 .debug_str     0x000078de      0x740 ./lwip/src/core/ipv4/dhcp.o
                               0x1420 (size before relaxing)
 .debug_str     0x0000801e      0x425 ./lwip/src/core/ipv4/etharp.o
                                0xfc4 (size before relaxing)
 .debug_str     0x00008443       0xba ./lwip/src/core/ipv4/icmp.o
                                0xa91 (size before relaxing)
 .debug_str     0x000084fd       0x1d ./lwip/src/core/ipv4/igmp.o
                                0x5ba (size before relaxing)
 .debug_str     0x0000851a       0xaf ./lwip/src/core/ipv4/ip4.o
                               0x1079 (size before relaxing)
 .debug_str     0x000085c9       0x99 ./lwip/src/core/ipv4/ip4_addr.o
                                0x964 (size before relaxing)
 .debug_str     0x00008662      0x27e ./lwip/src/core/ipv4/ip4_frag.o
                                0xdbc (size before relaxing)
 .debug_str     0x000088e0       0x7a ./lwip/src/netif/ethernet.o
                                0xbcb (size before relaxing)
 .debug_str     0x0000895a       0x1d ./lwip/src/netif/ppp/auth.o
                                0x5ba (size before relaxing)
 .debug_str     0x00008977       0x1c ./lwip/src/netif/ppp/ccp.o
                                0x5b9 (size before relaxing)
 .debug_str     0x00008993       0x21 ./lwip/src/netif/ppp/chap-md5.o
                                0x5be (size before relaxing)
 .debug_str     0x000089b4       0x21 ./lwip/src/netif/ppp/chap-new.o
                                0x5be (size before relaxing)
 .debug_str     0x000089d5       0x20 ./lwip/src/netif/ppp/chap_ms.o
                                0x5bd (size before relaxing)
 .debug_str     0x000089f5       0x1f ./lwip/src/netif/ppp/demand.o
                                0x5bc (size before relaxing)
 .debug_str     0x00008a14       0x1c ./lwip/src/netif/ppp/eap.o
                                0x5b9 (size before relaxing)
 .debug_str     0x00008a30       0x1c ./lwip/src/netif/ppp/ecp.o
                                0x5b9 (size before relaxing)
 .debug_str     0x00008a4c       0x1e ./lwip/src/netif/ppp/eui64.o
                                0x5bb (size before relaxing)
 .debug_str     0x00008a6a       0x1c ./lwip/src/netif/ppp/fsm.o
                                0x5b9 (size before relaxing)
 .debug_str     0x00008a86       0x1d ./lwip/src/netif/ppp/ipcp.o
                                0x5ba (size before relaxing)
 .debug_str     0x00008aa3       0x1f ./lwip/src/netif/ppp/ipv6cp.o
                                0x5bc (size before relaxing)
 .debug_str     0x00008ac2       0x1c ./lwip/src/netif/ppp/lcp.o
                                0x5b9 (size before relaxing)
 .debug_str     0x00008ade       0x1e ./lwip/src/netif/ppp/magic.o
                                0x5bb (size before relaxing)
 .debug_str     0x00008afc       0x1d ./lwip/src/netif/ppp/mppe.o
                                0x5ba (size before relaxing)
 .debug_str     0x00008b19       0x22 ./lwip/src/netif/ppp/multilink.o
                                0x5bf (size before relaxing)
 .debug_str     0x00008b3b       0x1c ./lwip/src/netif/ppp/ppp.o
                                0x5b9 (size before relaxing)
 .debug_str     0x00008b57       0x1f ./lwip/src/netif/ppp/pppapi.o
                                0x5bc (size before relaxing)
 .debug_str     0x00008b76       0x21 ./lwip/src/netif/ppp/pppcrypt.o
                                0x5be (size before relaxing)
 .debug_str     0x00008b97       0x1e ./lwip/src/netif/ppp/pppoe.o
                                0x5bb (size before relaxing)
 .debug_str     0x00008bb5       0x21 ./lwip/src/netif/ppp/pppol2tp.o
                                0x5be (size before relaxing)
 .debug_str     0x00008bd6       0x1e ./lwip/src/netif/ppp/pppos.o
                                0x5bb (size before relaxing)
 .debug_str     0x00008bf4       0x1d ./lwip/src/netif/ppp/upap.o
                                0x5ba (size before relaxing)
 .debug_str     0x00008c11       0x1e ./lwip/src/netif/ppp/utils.o
                                0x5bb (size before relaxing)
 .debug_str     0x00008c2f       0x1b ./lwip/src/netif/ppp/vj.o
                                0x5b8 (size before relaxing)
 .debug_str     0x00008c4a       0x26 ./lwip/src/netif/ppp/polarssl/arc4.o
                                0x5c3 (size before relaxing)
 .debug_str     0x00008c70       0x25 ./lwip/src/netif/ppp/polarssl/des.o
                                0x5c2 (size before relaxing)
 .debug_str     0x00008c95       0x25 ./lwip/src/netif/ppp/polarssl/md4.o
                                0x5c2 (size before relaxing)
 .debug_str     0x00008cba       0x25 ./lwip/src/netif/ppp/polarssl/md5.o
                                0x5c2 (size before relaxing)
 .debug_str     0x00008cdf       0x26 ./lwip/src/netif/ppp/polarssl/sha1.o
                                0x5c3 (size before relaxing)
 .debug_str     0x00008d05      0x221 ./lwip/system/OS/sys_arch.o
                                0xd55 (size before relaxing)

.debug_frame    0x00000000     0x70f0
 .debug_frame   0x00000000       0xac ./main.o
 .debug_frame   0x000000ac       0x58 ./tm4c1294ncpdt_startup_ccs_gcc.o
 .debug_frame   0x00000104       0x60 ./Drivers/pinout.o
 .debug_frame   0x00000164      0x5ec ./FreeRTOS/CMSIS_RTOS/cmsis_os.o
 .debug_frame   0x00000750      0x110 ./FreeRTOS/event_groups.o
 .debug_frame   0x00000860       0x6c ./FreeRTOS/list.o
 .debug_frame   0x000008cc      0x378 ./FreeRTOS/queue.o
 .debug_frame   0x00000c44      0x324 ./FreeRTOS/stream_buffer.o
 .debug_frame   0x00000f68      0x580 ./FreeRTOS/tasks.o
 .debug_frame   0x000014e8      0x268 ./FreeRTOS/timers.o
 .debug_frame   0x00001750      0x100 ./FreeRTOS/portable/GCC/ARM_CM4F/port.o
 .debug_frame   0x00001850       0xcc ./FreeRTOS/portable/MemMang/heap_4.o
 .debug_frame   0x0000191c       0x60 ./lwip/apps/httpserver_raw/fs.o
 .debug_frame   0x0000197c      0x408 ./lwip/apps/httpserver_raw/httpd.o
 .debug_frame   0x00001d84      0x180 ./lwip/lwiplib.o
 .debug_frame   0x00001f04      0x11c ./lwip/port/tiva-tm4c129.o
 .debug_frame   0x00002020      0x388 ./lwip/src/api/api_lib.o
 .debug_frame   0x000023a8      0x378 ./lwip/src/api/api_msg.o
 .debug_frame   0x00002720       0x20 ./lwip/src/api/err.o
 .debug_frame   0x00002740       0x30 ./lwip/src/api/if_api.o
 .debug_frame   0x00002770       0xf8 ./lwip/src/api/netbuf.o
 .debug_frame   0x00002868       0xd4 ./lwip/src/api/netdb.o
 .debug_frame   0x0000293c      0x700 ./lwip/src/api/sockets.o
 .debug_frame   0x0000303c      0x1d8 ./lwip/src/api/tcpip.o
 .debug_frame   0x00003214       0xb0 ./lwip/src/core/def.o
 .debug_frame   0x000032c4      0x25c ./lwip/src/core/dns.o
 .debug_frame   0x00003520      0x120 ./lwip/src/core/inet_chksum.o
 .debug_frame   0x00003640       0x28 ./lwip/src/core/init.o
 .debug_frame   0x00003668      0x124 ./lwip/src/core/mem.o
 .debug_frame   0x0000378c       0xd4 ./lwip/src/core/memp.o
 .debug_frame   0x00003860      0x274 ./lwip/src/core/netif.o
 .debug_frame   0x00003ad4      0x404 ./lwip/src/core/pbuf.o
 .debug_frame   0x00003ed8       0x30 ./lwip/src/core/sys.o
 .debug_frame   0x00003f08      0x574 ./lwip/src/core/tcp.o
 .debug_frame   0x0000447c      0x144 ./lwip/src/core/tcp_in.o
 .debug_frame   0x000045c0      0x328 ./lwip/src/core/tcp_out.o
 .debug_frame   0x000048e8      0x118 ./lwip/src/core/timeouts.o
 .debug_frame   0x00004a00      0x1f4 ./lwip/src/core/udp.o
 .debug_frame   0x00004bf4      0x49c ./lwip/src/core/ipv4/dhcp.o
 .debug_frame   0x00005090      0x1fc ./lwip/src/core/ipv4/etharp.o
 .debug_frame   0x0000528c       0x98 ./lwip/src/core/ipv4/icmp.o
 .debug_frame   0x00005324       0xf0 ./lwip/src/core/ipv4/ip4.o
 .debug_frame   0x00005414       0xcc ./lwip/src/core/ipv4/ip4_addr.o
 .debug_frame   0x000054e0      0x168 ./lwip/src/core/ipv4/ip4_frag.o
 .debug_frame   0x00005648       0x4c ./lwip/src/netif/ethernet.o
 .debug_frame   0x00005694      0x26c ./lwip/system/OS/sys_arch.o
 .debug_frame   0x00005900       0x30 c:/ti/ccs1011/ccs/tools/compiler/gcc-arm-none-eabi-7-2017-q4-major-win32/bin/../lib/gcc/arm-none-eabi/7.2.1/../../../../arm-none-eabi/lib/thumb/v7e-m/fpv4-sp/hard\libg.a(lib_a-atoi.o)
 .debug_frame   0x00005930       0x28 c:/ti/ccs1011/ccs/tools/compiler/gcc-arm-none-eabi-7-2017-q4-major-win32/bin/../lib/gcc/arm-none-eabi/7.2.1/../../../../arm-none-eabi/lib/thumb/v7e-m/fpv4-sp/hard\libg.a(lib_a-exit.o)
 .debug_frame   0x00005958       0x2c c:/ti/ccs1011/ccs/tools/compiler/gcc-arm-none-eabi-7-2017-q4-major-win32/bin/../lib/gcc/arm-none-eabi/7.2.1/../../../../arm-none-eabi/lib/thumb/v7e-m/fpv4-sp/hard\libg.a(lib_a-init.o)
 .debug_frame   0x00005984       0x6c c:/ti/ccs1011/ccs/tools/compiler/gcc-arm-none-eabi-7-2017-q4-major-win32/bin/../lib/gcc/arm-none-eabi/7.2.1/../../../../arm-none-eabi/lib/thumb/v7e-m/fpv4-sp/hard\libg.a(lib_a-locale.o)
 .debug_frame   0x000059f0       0x4c c:/ti/ccs1011/ccs/tools/compiler/gcc-arm-none-eabi-7-2017-q4-major-win32/bin/../lib/gcc/arm-none-eabi/7.2.1/../../../../arm-none-eabi/lib/thumb/v7e-m/fpv4-sp/hard\libg.a(lib_a-mbtowc_r.o)
 .debug_frame   0x00005a3c       0x38 c:/ti/ccs1011/ccs/tools/compiler/gcc-arm-none-eabi-7-2017-q4-major-win32/bin/../lib/gcc/arm-none-eabi/7.2.1/../../../../arm-none-eabi/lib/thumb/v7e-m/fpv4-sp/hard\libg.a(lib_a-memcmp.o)
 .debug_frame   0x00005a74       0x40 c:/ti/ccs1011/ccs/tools/compiler/gcc-arm-none-eabi-7-2017-q4-major-win32/bin/../lib/gcc/arm-none-eabi/7.2.1/../../../../arm-none-eabi/lib/thumb/v7e-m/fpv4-sp/hard\libg.a(lib_a-memmove.o)
 .debug_frame   0x00005ab4       0x38 c:/ti/ccs1011/ccs/tools/compiler/gcc-arm-none-eabi-7-2017-q4-major-win32/bin/../lib/gcc/arm-none-eabi/7.2.1/../../../../arm-none-eabi/lib/thumb/v7e-m/fpv4-sp/hard\libg.a(lib_a-memset.o)
 .debug_frame   0x00005aec       0x74 c:/ti/ccs1011/ccs/tools/compiler/gcc-arm-none-eabi-7-2017-q4-major-win32/bin/../lib/gcc/arm-none-eabi/7.2.1/../../../../arm-none-eabi/lib/thumb/v7e-m/fpv4-sp/hard\libg.a(lib_a-printf.o)
 .debug_frame   0x00005b60       0x3c c:/ti/ccs1011/ccs/tools/compiler/gcc-arm-none-eabi-7-2017-q4-major-win32/bin/../lib/gcc/arm-none-eabi/7.2.1/../../../../arm-none-eabi/lib/thumb/v7e-m/fpv4-sp/hard\libg.a(lib_a-rand.o)
 .debug_frame   0x00005b9c       0x68 c:/ti/ccs1011/ccs/tools/compiler/gcc-arm-none-eabi-7-2017-q4-major-win32/bin/../lib/gcc/arm-none-eabi/7.2.1/../../../../arm-none-eabi/lib/thumb/v7e-m/fpv4-sp/hard\libg.a(lib_a-reent.o)
 .debug_frame   0x00005c04       0x80 c:/ti/ccs1011/ccs/tools/compiler/gcc-arm-none-eabi-7-2017-q4-major-win32/bin/../lib/gcc/arm-none-eabi/7.2.1/../../../../arm-none-eabi/lib/thumb/v7e-m/fpv4-sp/hard\libg.a(lib_a-sprintf.o)
 .debug_frame   0x00005c84       0x30 c:/ti/ccs1011/ccs/tools/compiler/gcc-arm-none-eabi-7-2017-q4-major-win32/bin/../lib/gcc/arm-none-eabi/7.2.1/../../../../arm-none-eabi/lib/thumb/v7e-m/fpv4-sp/hard\libg.a(lib_a-strchr.o)
 .debug_frame   0x00005cb4       0x68 c:/ti/ccs1011/ccs/tools/compiler/gcc-arm-none-eabi-7-2017-q4-major-win32/bin/../lib/gcc/arm-none-eabi/7.2.1/../../../../arm-none-eabi/lib/thumb/v7e-m/fpv4-sp/hard\libg.a(lib_a-strcmp.o)
 .debug_frame   0x00005d1c       0x48 c:/ti/ccs1011/ccs/tools/compiler/gcc-arm-none-eabi-7-2017-q4-major-win32/bin/../lib/gcc/arm-none-eabi/7.2.1/../../../../arm-none-eabi/lib/thumb/v7e-m/fpv4-sp/hard\libg.a(lib_a-strncmp.o)
 .debug_frame   0x00005d64       0x34 c:/ti/ccs1011/ccs/tools/compiler/gcc-arm-none-eabi-7-2017-q4-major-win32/bin/../lib/gcc/arm-none-eabi/7.2.1/../../../../arm-none-eabi/lib/thumb/v7e-m/fpv4-sp/hard\libg.a(lib_a-strncpy.o)
 .debug_frame   0x00005d98       0x9c c:/ti/ccs1011/ccs/tools/compiler/gcc-arm-none-eabi-7-2017-q4-major-win32/bin/../lib/gcc/arm-none-eabi/7.2.1/../../../../arm-none-eabi/lib/thumb/v7e-m/fpv4-sp/hard\libg.a(lib_a-strstr.o)
 .debug_frame   0x00005e34       0x98 c:/ti/ccs1011/ccs/tools/compiler/gcc-arm-none-eabi-7-2017-q4-major-win32/bin/../lib/gcc/arm-none-eabi/7.2.1/../../../../arm-none-eabi/lib/thumb/v7e-m/fpv4-sp/hard\libg.a(lib_a-strtol.o)
 .debug_frame   0x00005ecc       0x40 c:/ti/ccs1011/ccs/tools/compiler/gcc-arm-none-eabi-7-2017-q4-major-win32/bin/../lib/gcc/arm-none-eabi/7.2.1/../../../../arm-none-eabi/lib/thumb/v7e-m/fpv4-sp/hard\libg.a(lib_a-svfprintf.o)
 .debug_frame   0x00005f0c       0x94 c:/ti/ccs1011/ccs/tools/compiler/gcc-arm-none-eabi-7-2017-q4-major-win32/bin/../lib/gcc/arm-none-eabi/7.2.1/../../../../arm-none-eabi/lib/thumb/v7e-m/fpv4-sp/hard\libg.a(lib_a-vfprintf.o)
 .debug_frame   0x00005fa0       0x3c c:/ti/ccs1011/ccs/tools/compiler/gcc-arm-none-eabi-7-2017-q4-major-win32/bin/../lib/gcc/arm-none-eabi/7.2.1/../../../../arm-none-eabi/lib/thumb/v7e-m/fpv4-sp/hard\libg.a(lib_a-wctomb_r.o)
 .debug_frame   0x00005fdc       0x2c c:/ti/ccs1011/ccs/tools/compiler/gcc-arm-none-eabi-7-2017-q4-major-win32/bin/../lib/gcc/arm-none-eabi/7.2.1/../../../../arm-none-eabi/lib/thumb/v7e-m/fpv4-sp/hard\libg.a(lib_a-wsetup.o)
 .debug_frame   0x00006008       0x5c c:/ti/ccs1011/ccs/tools/compiler/gcc-arm-none-eabi-7-2017-q4-major-win32/bin/../lib/gcc/arm-none-eabi/7.2.1/../../../../arm-none-eabi/lib/thumb/v7e-m/fpv4-sp/hard\libg.a(lib_a-__call_atexit.o)
 .debug_frame   0x00006064       0x20 c:/ti/ccs1011/ccs/tools/compiler/gcc-arm-none-eabi-7-2017-q4-major-win32/bin/../lib/gcc/arm-none-eabi/7.2.1/../../../../arm-none-eabi/lib/thumb/v7e-m/fpv4-sp/hard\libg.a(lib_a-atexit.o)
 .debug_frame   0x00006084       0x88 c:/ti/ccs1011/ccs/tools/compiler/gcc-arm-none-eabi-7-2017-q4-major-win32/bin/../lib/gcc/arm-none-eabi/7.2.1/../../../../arm-none-eabi/lib/thumb/v7e-m/fpv4-sp/hard\libg.a(lib_a-dtoa.o)
 .debug_frame   0x0000610c       0x5c c:/ti/ccs1011/ccs/tools/compiler/gcc-arm-none-eabi-7-2017-q4-major-win32/bin/../lib/gcc/arm-none-eabi/7.2.1/../../../../arm-none-eabi/lib/thumb/v7e-m/fpv4-sp/hard\libg.a(lib_a-fflush.o)
 .debug_frame   0x00006168      0x148 c:/ti/ccs1011/ccs/tools/compiler/gcc-arm-none-eabi-7-2017-q4-major-win32/bin/../lib/gcc/arm-none-eabi/7.2.1/../../../../arm-none-eabi/lib/thumb/v7e-m/fpv4-sp/hard\libg.a(lib_a-findfp.o)
 .debug_frame   0x000062b0       0x34 c:/ti/ccs1011/ccs/tools/compiler/gcc-arm-none-eabi-7-2017-q4-major-win32/bin/../lib/gcc/arm-none-eabi/7.2.1/../../../../arm-none-eabi/lib/thumb/v7e-m/fpv4-sp/hard\libg.a(lib_a-fini.o)
 .debug_frame   0x000062e4       0x80 c:/ti/ccs1011/ccs/tools/compiler/gcc-arm-none-eabi-7-2017-q4-major-win32/bin/../lib/gcc/arm-none-eabi/7.2.1/../../../../arm-none-eabi/lib/thumb/v7e-m/fpv4-sp/hard\libg.a(lib_a-freer.o)
 .debug_frame   0x00006364       0x54 c:/ti/ccs1011/ccs/tools/compiler/gcc-arm-none-eabi-7-2017-q4-major-win32/bin/../lib/gcc/arm-none-eabi/7.2.1/../../../../arm-none-eabi/lib/thumb/v7e-m/fpv4-sp/hard\libg.a(lib_a-fwalk.o)
 .debug_frame   0x000063b8       0x40 c:/ti/ccs1011/ccs/tools/compiler/gcc-arm-none-eabi-7-2017-q4-major-win32/bin/../lib/gcc/arm-none-eabi/7.2.1/../../../../arm-none-eabi/lib/thumb/v7e-m/fpv4-sp/hard\libg.a(lib_a-localeconv.o)
 .debug_frame   0x000063f8       0xb0 c:/ti/ccs1011/ccs/tools/compiler/gcc-arm-none-eabi-7-2017-q4-major-win32/bin/../lib/gcc/arm-none-eabi/7.2.1/../../../../arm-none-eabi/lib/thumb/v7e-m/fpv4-sp/hard\libg.a(lib_a-lock.o)
 .debug_frame   0x000064a8       0x64 c:/ti/ccs1011/ccs/tools/compiler/gcc-arm-none-eabi-7-2017-q4-major-win32/bin/../lib/gcc/arm-none-eabi/7.2.1/../../../../arm-none-eabi/lib/thumb/v7e-m/fpv4-sp/hard\libg.a(lib_a-makebuf.o)
 .debug_frame   0x0000650c       0x54 c:/ti/ccs1011/ccs/tools/compiler/gcc-arm-none-eabi-7-2017-q4-major-win32/bin/../lib/gcc/arm-none-eabi/7.2.1/../../../../arm-none-eabi/lib/thumb/v7e-m/fpv4-sp/hard\libg.a(lib_a-mallocr.o)
 .debug_frame   0x00006560       0x30 c:/ti/ccs1011/ccs/tools/compiler/gcc-arm-none-eabi-7-2017-q4-major-win32/bin/../lib/gcc/arm-none-eabi/7.2.1/../../../../arm-none-eabi/lib/thumb/v7e-m/fpv4-sp/hard\libg.a(lib_a-mlock.o)
 .debug_frame   0x00006590      0x25c c:/ti/ccs1011/ccs/tools/compiler/gcc-arm-none-eabi-7-2017-q4-major-win32/bin/../lib/gcc/arm-none-eabi/7.2.1/../../../../arm-none-eabi/lib/thumb/v7e-m/fpv4-sp/hard\libg.a(lib_a-mprec.o)
 .debug_frame   0x000067ec       0x2c c:/ti/ccs1011/ccs/tools/compiler/gcc-arm-none-eabi-7-2017-q4-major-win32/bin/../lib/gcc/arm-none-eabi/7.2.1/../../../../arm-none-eabi/lib/thumb/v7e-m/fpv4-sp/hard\libg.a(lib_a-sbrkr.o)
 .debug_frame   0x00006818       0x88 c:/ti/ccs1011/ccs/tools/compiler/gcc-arm-none-eabi-7-2017-q4-major-win32/bin/../lib/gcc/arm-none-eabi/7.2.1/../../../../arm-none-eabi/lib/thumb/v7e-m/fpv4-sp/hard\libg.a(lib_a-stdio.o)
 .debug_frame   0x000068a0       0x78 c:/ti/ccs1011/ccs/tools/compiler/gcc-arm-none-eabi-7-2017-q4-major-win32/bin/../lib/gcc/arm-none-eabi/7.2.1/../../../../arm-none-eabi/lib/thumb/v7e-m/fpv4-sp/hard\libg.a(lib_a-svfiprintf.o)
 .debug_frame   0x00006918       0xd8 c:/ti/ccs1011/ccs/tools/compiler/gcc-arm-none-eabi-7-2017-q4-major-win32/bin/../lib/gcc/arm-none-eabi/7.2.1/../../../../arm-none-eabi/lib/thumb/v7e-m/fpv4-sp/hard\libg.a(lib_a-vfiprintf.o)
 .debug_frame   0x000069f0       0x2c c:/ti/ccs1011/ccs/tools/compiler/gcc-arm-none-eabi-7-2017-q4-major-win32/bin/../lib/gcc/arm-none-eabi/7.2.1/../../../../arm-none-eabi/lib/thumb/v7e-m/fpv4-sp/hard\libg.a(lib_a-writer.o)
 .debug_frame   0x00006a1c       0x34 c:/ti/ccs1011/ccs/tools/compiler/gcc-arm-none-eabi-7-2017-q4-major-win32/bin/../lib/gcc/arm-none-eabi/7.2.1/../../../../arm-none-eabi/lib/thumb/v7e-m/fpv4-sp/hard\libg.a(lib_a-__atexit.o)
 .debug_frame   0x00006a50       0x28 c:/ti/ccs1011/ccs/tools/compiler/gcc-arm-none-eabi-7-2017-q4-major-win32/bin/../lib/gcc/arm-none-eabi/7.2.1/../../../../arm-none-eabi/lib/thumb/v7e-m/fpv4-sp/hard\libg.a(lib_a-callocr.o)
 .debug_frame   0x00006a78       0x2c c:/ti/ccs1011/ccs/tools/compiler/gcc-arm-none-eabi-7-2017-q4-major-win32/bin/../lib/gcc/arm-none-eabi/7.2.1/../../../../arm-none-eabi/lib/thumb/v7e-m/fpv4-sp/hard\libg.a(lib_a-closer.o)
 .debug_frame   0x00006aa4       0x3c c:/ti/ccs1011/ccs/tools/compiler/gcc-arm-none-eabi-7-2017-q4-major-win32/bin/../lib/gcc/arm-none-eabi/7.2.1/../../../../arm-none-eabi/lib/thumb/v7e-m/fpv4-sp/hard\libg.a(lib_a-fclose.o)
 .debug_frame   0x00006ae0       0x9c c:/ti/ccs1011/ccs/tools/compiler/gcc-arm-none-eabi-7-2017-q4-major-win32/bin/../lib/gcc/arm-none-eabi/7.2.1/../../../../arm-none-eabi/lib/thumb/v7e-m/fpv4-sp/hard\libg.a(lib_a-fputwc.o)
 .debug_frame   0x00006b7c       0x2c c:/ti/ccs1011/ccs/tools/compiler/gcc-arm-none-eabi-7-2017-q4-major-win32/bin/../lib/gcc/arm-none-eabi/7.2.1/../../../../arm-none-eabi/lib/thumb/v7e-m/fpv4-sp/hard\libg.a(lib_a-fstatr.o)
 .debug_frame   0x00006ba8       0x64 c:/ti/ccs1011/ccs/tools/compiler/gcc-arm-none-eabi-7-2017-q4-major-win32/bin/../lib/gcc/arm-none-eabi/7.2.1/../../../../arm-none-eabi/lib/thumb/v7e-m/fpv4-sp/hard\libg.a(lib_a-fvwrite.o)
 .debug_frame   0x00006c0c       0x2c c:/ti/ccs1011/ccs/tools/compiler/gcc-arm-none-eabi-7-2017-q4-major-win32/bin/../lib/gcc/arm-none-eabi/7.2.1/../../../../arm-none-eabi/lib/thumb/v7e-m/fpv4-sp/hard\libg.a(lib_a-isattyr.o)
 .debug_frame   0x00006c38       0x2c c:/ti/ccs1011/ccs/tools/compiler/gcc-arm-none-eabi-7-2017-q4-major-win32/bin/../lib/gcc/arm-none-eabi/7.2.1/../../../../arm-none-eabi/lib/thumb/v7e-m/fpv4-sp/hard\libg.a(lib_a-lseekr.o)
 .debug_frame   0x00006c64       0x2c c:/ti/ccs1011/ccs/tools/compiler/gcc-arm-none-eabi-7-2017-q4-major-win32/bin/../lib/gcc/arm-none-eabi/7.2.1/../../../../arm-none-eabi/lib/thumb/v7e-m/fpv4-sp/hard\libg.a(lib_a-readr.o)
 .debug_frame   0x00006c90       0x58 c:/ti/ccs1011/ccs/tools/compiler/gcc-arm-none-eabi-7-2017-q4-major-win32/bin/../lib/gcc/arm-none-eabi/7.2.1/../../../../arm-none-eabi/lib/thumb/v7e-m/fpv4-sp/hard\libg.a(lib_a-reallocr.o)
 .debug_frame   0x00006ce8       0x40 c:/ti/ccs1011/ccs/tools/compiler/gcc-arm-none-eabi-7-2017-q4-major-win32/bin/../lib/gcc/arm-none-eabi/7.2.1/../../../../arm-none-eabi/lib/thumb/v7e-m/fpv4-sp/hard\libg.a(lib_a-wbuf.o)
 .debug_frame   0x00006d28       0x64 c:/ti/ccs1011/ccs/tools/compiler/gcc-arm-none-eabi-7-2017-q4-major-win32/bin/../lib/gcc/arm-none-eabi/7.2.1/../../../../arm-none-eabi/lib/thumb/v7e-m/fpv4-sp/hard\libg.a(lib_a-wcrtomb.o)
 .debug_frame   0x00006d8c       0xac c:/ti/ccs1011/ccs/tools/compiler/gcc-arm-none-eabi-7-2017-q4-major-win32/bin/../lib/gcc/arm-none-eabi/7.2.1/thumb/v7e-m/fpv4-sp/hard\libgcc.a(_arm_addsubdf3.o)
 .debug_frame   0x00006e38       0x50 c:/ti/ccs1011/ccs/tools/compiler/gcc-arm-none-eabi-7-2017-q4-major-win32/bin/../lib/gcc/arm-none-eabi/7.2.1/thumb/v7e-m/fpv4-sp/hard\libgcc.a(_arm_muldivdf3.o)
 .debug_frame   0x00006e88       0xc4 c:/ti/ccs1011/ccs/tools/compiler/gcc-arm-none-eabi-7-2017-q4-major-win32/bin/../lib/gcc/arm-none-eabi/7.2.1/thumb/v7e-m/fpv4-sp/hard\libgcc.a(_arm_cmpdf2.o)
 .debug_frame   0x00006f4c       0x20 c:/ti/ccs1011/ccs/tools/compiler/gcc-arm-none-eabi-7-2017-q4-major-win32/bin/../lib/gcc/arm-none-eabi/7.2.1/thumb/v7e-m/fpv4-sp/hard\libgcc.a(_arm_unorddf2.o)
 .debug_frame   0x00006f6c       0x24 c:/ti/ccs1011/ccs/tools/compiler/gcc-arm-none-eabi-7-2017-q4-major-win32/bin/../lib/gcc/arm-none-eabi/7.2.1/thumb/v7e-m/fpv4-sp/hard\libgcc.a(_arm_fixdfsi.o)
 .debug_frame   0x00006f90       0x2c c:/ti/ccs1011/ccs/tools/compiler/gcc-arm-none-eabi-7-2017-q4-major-win32/bin/../lib/gcc/arm-none-eabi/7.2.1/thumb/v7e-m/fpv4-sp/hard\libgcc.a(_aeabi_uldivmod.o)
 .debug_frame   0x00006fbc       0x34 c:/ti/ccs1011/ccs/tools/compiler/gcc-arm-none-eabi-7-2017-q4-major-win32/bin/../lib/gcc/arm-none-eabi/7.2.1/thumb/v7e-m/fpv4-sp/hard\libgcc.a(_udivmoddi4.o)
 .debug_frame   0x00006ff0       0x20 c:/ti/ccs1011/ccs/tools/compiler/gcc-arm-none-eabi-7-2017-q4-major-win32/bin/../lib/gcc/arm-none-eabi/7.2.1/../../../../arm-none-eabi/lib/thumb/v7e-m/fpv4-sp/hard\libnosys.a(close.o)
 .debug_frame   0x00007010       0x20 c:/ti/ccs1011/ccs/tools/compiler/gcc-arm-none-eabi-7-2017-q4-major-win32/bin/../lib/gcc/arm-none-eabi/7.2.1/../../../../arm-none-eabi/lib/thumb/v7e-m/fpv4-sp/hard\libnosys.a(fstat.o)
 .debug_frame   0x00007030       0x20 c:/ti/ccs1011/ccs/tools/compiler/gcc-arm-none-eabi-7-2017-q4-major-win32/bin/../lib/gcc/arm-none-eabi/7.2.1/../../../../arm-none-eabi/lib/thumb/v7e-m/fpv4-sp/hard\libnosys.a(isatty.o)
 .debug_frame   0x00007050       0x20 c:/ti/ccs1011/ccs/tools/compiler/gcc-arm-none-eabi-7-2017-q4-major-win32/bin/../lib/gcc/arm-none-eabi/7.2.1/../../../../arm-none-eabi/lib/thumb/v7e-m/fpv4-sp/hard\libnosys.a(lseek.o)
 .debug_frame   0x00007070       0x20 c:/ti/ccs1011/ccs/tools/compiler/gcc-arm-none-eabi-7-2017-q4-major-win32/bin/../lib/gcc/arm-none-eabi/7.2.1/../../../../arm-none-eabi/lib/thumb/v7e-m/fpv4-sp/hard\libnosys.a(read.o)
 .debug_frame   0x00007090       0x20 c:/ti/ccs1011/ccs/tools/compiler/gcc-arm-none-eabi-7-2017-q4-major-win32/bin/../lib/gcc/arm-none-eabi/7.2.1/../../../../arm-none-eabi/lib/thumb/v7e-m/fpv4-sp/hard\libnosys.a(sbrk.o)
 .debug_frame   0x000070b0       0x20 c:/ti/ccs1011/ccs/tools/compiler/gcc-arm-none-eabi-7-2017-q4-major-win32/bin/../lib/gcc/arm-none-eabi/7.2.1/../../../../arm-none-eabi/lib/thumb/v7e-m/fpv4-sp/hard\libnosys.a(write.o)
 .debug_frame   0x000070d0       0x20 c:/ti/ccs1011/ccs/tools/compiler/gcc-arm-none-eabi-7-2017-q4-major-win32/bin/../lib/gcc/arm-none-eabi/7.2.1/../../../../arm-none-eabi/lib/thumb/v7e-m/fpv4-sp/hard\libnosys.a(_exit.o)

.stab           0x00000000       0x9c
 .stab          0x00000000       0x24 c:/ti/ccs1011/ccs/tools/compiler/gcc-arm-none-eabi-7-2017-q4-major-win32/bin/../lib/gcc/arm-none-eabi/7.2.1/../../../../arm-none-eabi/lib/thumb/v7e-m/fpv4-sp/hard\libnosys.a(close.o)
 .stab          0x00000024       0x18 c:/ti/ccs1011/ccs/tools/compiler/gcc-arm-none-eabi-7-2017-q4-major-win32/bin/../lib/gcc/arm-none-eabi/7.2.1/../../../../arm-none-eabi/lib/thumb/v7e-m/fpv4-sp/hard\libnosys.a(fstat.o)
                                 0x24 (size before relaxing)
 .stab          0x0000003c       0x18 c:/ti/ccs1011/ccs/tools/compiler/gcc-arm-none-eabi-7-2017-q4-major-win32/bin/../lib/gcc/arm-none-eabi/7.2.1/../../../../arm-none-eabi/lib/thumb/v7e-m/fpv4-sp/hard\libnosys.a(isatty.o)
                                 0x24 (size before relaxing)
 .stab          0x00000054       0x18 c:/ti/ccs1011/ccs/tools/compiler/gcc-arm-none-eabi-7-2017-q4-major-win32/bin/../lib/gcc/arm-none-eabi/7.2.1/../../../../arm-none-eabi/lib/thumb/v7e-m/fpv4-sp/hard\libnosys.a(lseek.o)
                                 0x24 (size before relaxing)
 .stab          0x0000006c       0x18 c:/ti/ccs1011/ccs/tools/compiler/gcc-arm-none-eabi-7-2017-q4-major-win32/bin/../lib/gcc/arm-none-eabi/7.2.1/../../../../arm-none-eabi/lib/thumb/v7e-m/fpv4-sp/hard\libnosys.a(read.o)
                                 0x24 (size before relaxing)
 .stab          0x00000084       0x18 c:/ti/ccs1011/ccs/tools/compiler/gcc-arm-none-eabi-7-2017-q4-major-win32/bin/../lib/gcc/arm-none-eabi/7.2.1/../../../../arm-none-eabi/lib/thumb/v7e-m/fpv4-sp/hard\libnosys.a(write.o)
                                 0x24 (size before relaxing)

.stabstr        0x00000000      0x14d
 .stabstr       0x00000000      0x14d c:/ti/ccs1011/ccs/tools/compiler/gcc-arm-none-eabi-7-2017-q4-major-win32/bin/../lib/gcc/arm-none-eabi/7.2.1/../../../../arm-none-eabi/lib/thumb/v7e-m/fpv4-sp/hard\libnosys.a(close.o)
